
testProgram.o:     file format elf32-littlearm


Disassembly of section .text:

00000000 <_text>:
       0:	200005a8 	.word	0x200005a8
       4:	000005f1 	.word	0x000005f1
       8:	000005e5 	.word	0x000005e5
       c:	000005e9 	.word	0x000005e9
      10:	000005ed 	.word	0x000005ed
      14:	000005ed 	.word	0x000005ed
      18:	000005ed 	.word	0x000005ed
	...
      2c:	000005ed 	.word	0x000005ed
      30:	000005ed 	.word	0x000005ed
      34:	00000000 	.word	0x00000000
      38:	000005ed 	.word	0x000005ed
      3c:	000005ed 	.word	0x000005ed
      40:	000005ed 	.word	0x000005ed
      44:	000005ed 	.word	0x000005ed
      48:	000005ed 	.word	0x000005ed
      4c:	000005ed 	.word	0x000005ed
      50:	000005ed 	.word	0x000005ed
      54:	0000026d 	.word	0x0000026d
      58:	000005ed 	.word	0x000005ed
      5c:	000005ed 	.word	0x000005ed
      60:	000005ed 	.word	0x000005ed
      64:	000005ed 	.word	0x000005ed
      68:	000005ed 	.word	0x000005ed
      6c:	000005ed 	.word	0x000005ed
      70:	000005ed 	.word	0x000005ed
      74:	000005ed 	.word	0x000005ed
      78:	000005ed 	.word	0x000005ed
      7c:	000005ed 	.word	0x000005ed
      80:	000005ed 	.word	0x000005ed
      84:	000005ed 	.word	0x000005ed
      88:	000005ed 	.word	0x000005ed
      8c:	000002b5 	.word	0x000002b5
      90:	000005ed 	.word	0x000005ed
      94:	000005ed 	.word	0x000005ed
      98:	000005ed 	.word	0x000005ed
      9c:	000005ed 	.word	0x000005ed
      a0:	000005ed 	.word	0x000005ed
      a4:	000005ed 	.word	0x000005ed
      a8:	000005ed 	.word	0x000005ed
      ac:	000005ed 	.word	0x000005ed
      b0:	000005ed 	.word	0x000005ed
      b4:	000005ed 	.word	0x000005ed
      b8:	000005ed 	.word	0x000005ed
      bc:	000005ed 	.word	0x000005ed
      c0:	000005ed 	.word	0x000005ed
      c4:	000005ed 	.word	0x000005ed
      c8:	000005ed 	.word	0x000005ed
      cc:	000005ed 	.word	0x000005ed
      d0:	000005ed 	.word	0x000005ed
      d4:	000005ed 	.word	0x000005ed
      d8:	000005ed 	.word	0x000005ed
      dc:	000005ed 	.word	0x000005ed
      e0:	000005ed 	.word	0x000005ed
	...
      ec:	000005ed 	.word	0x000005ed
      f0:	000005ed 	.word	0x000005ed
      f4:	000005ed 	.word	0x000005ed
      f8:	000005ed 	.word	0x000005ed
      fc:	000005ed 	.word	0x000005ed
     100:	000005ed 	.word	0x000005ed
     104:	000005ed 	.word	0x000005ed
     108:	000005ed 	.word	0x000005ed
     10c:	000005ed 	.word	0x000005ed
	...
     118:	000005ed 	.word	0x000005ed
     11c:	000005ed 	.word	0x000005ed
     120:	000005ed 	.word	0x000005ed
     124:	000005ed 	.word	0x000005ed
     128:	000005ed 	.word	0x000005ed
     12c:	000005ed 	.word	0x000005ed
     130:	000005ed 	.word	0x000005ed
     134:	000005ed 	.word	0x000005ed
     138:	000005ed 	.word	0x000005ed
     13c:	000005ed 	.word	0x000005ed
	...
     150:	000005ed 	.word	0x000005ed
     154:	000005ed 	.word	0x000005ed
     158:	000005ed 	.word	0x000005ed
     15c:	000005ed 	.word	0x000005ed
	...
     1b0:	000005ed 	.word	0x000005ed
     1b4:	000005ed 	.word	0x000005ed
     1b8:	000005ed 	.word	0x000005ed
     1bc:	000005ed 	.word	0x000005ed
     1c0:	000005ed 	.word	0x000005ed
     1c4:	000005ed 	.word	0x000005ed
     1c8:	000005ed 	.word	0x000005ed
     1cc:	000005ed 	.word	0x000005ed
     1d0:	000005ed 	.word	0x000005ed
     1d4:	000005ed 	.word	0x000005ed
     1d8:	000005ed 	.word	0x000005ed
     1dc:	000005ed 	.word	0x000005ed
     1e0:	000005ed 	.word	0x000005ed
     1e4:	000005ed 	.word	0x000005ed
     1e8:	000005ed 	.word	0x000005ed
	...
     1f4:	000005ed 	.word	0x000005ed
     1f8:	000005ed 	.word	0x000005ed
     1fc:	000005ed 	.word	0x000005ed
     200:	000005ed 	.word	0x000005ed
     204:	000005ed 	.word	0x000005ed
	...
     210:	000005ed 	.word	0x000005ed
     214:	000005ed 	.word	0x000005ed
     218:	000005ed 	.word	0x000005ed
     21c:	000005ed 	.word	0x000005ed
     220:	000005ed 	.word	0x000005ed
     224:	000005ed 	.word	0x000005ed
     228:	000005ed 	.word	0x000005ed
     22c:	000005ed 	.word	0x000005ed
     230:	000005ed 	.word	0x000005ed
     234:	000005ed 	.word	0x000005ed
     238:	000005ed 	.word	0x000005ed
     23c:	000005ed 	.word	0x000005ed
     240:	000005ed 	.word	0x000005ed
     244:	000005ed 	.word	0x000005ed
     248:	000005ed 	.word	0x000005ed
     24c:	000005ed 	.word	0x000005ed
     250:	000005ed 	.word	0x000005ed
     254:	000005ed 	.word	0x000005ed
     258:	000005ed 	.word	0x000005ed
     25c:	000005ed 	.word	0x000005ed
     260:	000005ed 	.word	0x000005ed
     264:	000005ed 	.word	0x000005ed
     268:	000005ed 	.word	0x000005ed

0000026c <UARTIntHandler>:
     26c:	b508      	push	{r3, lr}
     26e:	2100      	movs	r1, #0
     270:	480c      	ldr	r0, [pc, #48]	; (2a4 <UARTIntHandler+0x38>)
     272:	f002 fb4b 	bl	290c <UARTIntStatus>
     276:	4601      	mov	r1, r0
     278:	480a      	ldr	r0, [pc, #40]	; (2a4 <UARTIntHandler+0x38>)
     27a:	f002 fb4c 	bl	2916 <UARTIntClear>
     27e:	4809      	ldr	r0, [pc, #36]	; (2a4 <UARTIntHandler+0x38>)
     280:	f002 faf6 	bl	2870 <UARTCharGetNonBlocking>
     284:	4b08      	ldr	r3, [pc, #32]	; (2a8 <UARTIntHandler+0x3c>)
     286:	4909      	ldr	r1, [pc, #36]	; (2ac <UARTIntHandler+0x40>)
     288:	781a      	ldrb	r2, [r3, #0]
     28a:	b2c0      	uxtb	r0, r0
     28c:	280d      	cmp	r0, #13
     28e:	5488      	strb	r0, [r1, r2]
     290:	d004      	beq.n	29c <UARTIntHandler+0x30>
     292:	3201      	adds	r2, #1
     294:	f002 021f 	and.w	r2, r2, #31
     298:	701a      	strb	r2, [r3, #0]
     29a:	bd08      	pop	{r3, pc}
     29c:	4b04      	ldr	r3, [pc, #16]	; (2b0 <UARTIntHandler+0x44>)
     29e:	2201      	movs	r2, #1
     2a0:	705a      	strb	r2, [r3, #1]
     2a2:	bd08      	pop	{r3, pc}
     2a4:	4000c000 	.word	0x4000c000
     2a8:	20000480 	.word	0x20000480
     2ac:	20000484 	.word	0x20000484
     2b0:	2000047c 	.word	0x2000047c

000002b4 <TIMER0A_Handler>:
     2b4:	e92d 47f0 	stmdb	sp!, {r4, r5, r6, r7, r8, r9, sl, lr}
     2b8:	483c      	ldr	r0, [pc, #240]	; (3ac <TIMER0A_Handler+0xf8>)
     2ba:	4f3d      	ldr	r7, [pc, #244]	; (3b0 <TIMER0A_Handler+0xfc>)
     2bc:	4d3d      	ldr	r5, [pc, #244]	; (3b4 <TIMER0A_Handler+0x100>)
     2be:	2101      	movs	r1, #1
     2c0:	f002 f9c3 	bl	264a <TimerIntClear>
     2c4:	2000      	movs	r0, #0
     2c6:	4604      	mov	r4, r0
     2c8:	4681      	mov	r9, r0
     2ca:	f04f 0803 	mov.w	r8, #3
     2ce:	0126      	lsls	r6, r4, #4
     2d0:	1b33      	subs	r3, r6, r4
     2d2:	eb07 0383 	add.w	r3, r7, r3, lsl #2
     2d6:	f103 0230 	add.w	r2, r3, #48	; 0x30
     2da:	7891      	ldrb	r1, [r2, #2]
     2dc:	b2c9      	uxtb	r1, r1
     2de:	2901      	cmp	r1, #1
     2e0:	d020      	beq.n	324 <TIMER0A_Handler+0x70>
     2e2:	d343      	bcc.n	36c <TIMER0A_Handler+0xb8>
     2e4:	2903      	cmp	r1, #3
     2e6:	d125      	bne.n	334 <TIMER0A_Handler+0x80>
     2e8:	f001 f894 	bl	1414 <IntMasterDisable>
     2ec:	682b      	ldr	r3, [r5, #0]
     2ee:	1b36      	subs	r6, r6, r4
     2f0:	eb07 0a86 	add.w	sl, r7, r6, lsl #2
     2f4:	3301      	adds	r3, #1
     2f6:	602b      	str	r3, [r5, #0]
     2f8:	f8da 0004 	ldr.w	r0, [sl, #4]
     2fc:	f857 1026 	ldr.w	r1, [r7, r6, lsl #2]
     300:	f8da 2018 	ldr.w	r2, [sl, #24]
     304:	b2c9      	uxtb	r1, r1
     306:	b2d2      	uxtb	r2, r2
     308:	f000 feac 	bl	1064 <GPIOPinWrite>
     30c:	f8da 3018 	ldr.w	r3, [sl, #24]
     310:	43db      	mvns	r3, r3
     312:	f8ca 3018 	str.w	r3, [sl, #24]
     316:	682b      	ldr	r3, [r5, #0]
     318:	3b01      	subs	r3, #1
     31a:	602b      	str	r3, [r5, #0]
     31c:	2b00      	cmp	r3, #0
     31e:	d041      	beq.n	3a4 <TIMER0A_Handler+0xf0>
     320:	2001      	movs	r0, #1
     322:	e009      	b.n	338 <TIMER0A_Handler+0x84>
     324:	6b99      	ldr	r1, [r3, #56]	; 0x38
     326:	3101      	adds	r1, #1
     328:	6399      	str	r1, [r3, #56]	; 0x38
     32a:	f8d3 e038 	ldr.w	lr, [r3, #56]	; 0x38
     32e:	6851      	ldr	r1, [r2, #4]
     330:	458e      	cmp	lr, r1
     332:	d22e      	bcs.n	392 <TIMER0A_Handler+0xde>
     334:	2800      	cmp	r0, #0
     336:	d1d7      	bne.n	2e8 <TIMER0A_Handler+0x34>
     338:	3401      	adds	r4, #1
     33a:	2c02      	cmp	r4, #2
     33c:	d1c7      	bne.n	2ce <TIMER0A_Handler+0x1a>
     33e:	4c1e      	ldr	r4, [pc, #120]	; (3b8 <TIMER0A_Handler+0x104>)
     340:	f001 f868 	bl	1414 <IntMasterDisable>
     344:	682b      	ldr	r3, [r5, #0]
     346:	7822      	ldrb	r2, [r4, #0]
     348:	3301      	adds	r3, #1
     34a:	602b      	str	r3, [r5, #0]
     34c:	b112      	cbz	r2, 354 <TIMER0A_Handler+0xa0>
     34e:	4b1b      	ldr	r3, [pc, #108]	; (3bc <TIMER0A_Handler+0x108>)
     350:	2101      	movs	r1, #1
     352:	7019      	strb	r1, [r3, #0]
     354:	682b      	ldr	r3, [r5, #0]
     356:	3b01      	subs	r3, #1
     358:	602b      	str	r3, [r5, #0]
     35a:	b913      	cbnz	r3, 362 <TIMER0A_Handler+0xae>
     35c:	f001 f853 	bl	1406 <IntMasterEnable>
     360:	7822      	ldrb	r2, [r4, #0]
     362:	f082 0201 	eor.w	r2, r2, #1
     366:	7022      	strb	r2, [r4, #0]
     368:	e8bd 87f0 	ldmia.w	sp!, {r4, r5, r6, r7, r8, r9, sl, pc}
     36c:	6b99      	ldr	r1, [r3, #56]	; 0x38
     36e:	3101      	adds	r1, #1
     370:	6399      	str	r1, [r3, #56]	; 0x38
     372:	f8d3 e038 	ldr.w	lr, [r3, #56]	; 0x38
     376:	6851      	ldr	r1, [r2, #4]
     378:	458e      	cmp	lr, r1
     37a:	d3db      	bcc.n	334 <TIMER0A_Handler+0x80>
     37c:	6851      	ldr	r1, [r2, #4]
     37e:	3901      	subs	r1, #1
     380:	6051      	str	r1, [r2, #4]
     382:	f8c3 9038 	str.w	r9, [r3, #56]	; 0x38
     386:	6853      	ldr	r3, [r2, #4]
     388:	2b00      	cmp	r3, #0
     38a:	d0ad      	beq.n	2e8 <TIMER0A_Handler+0x34>
     38c:	f882 8002 	strb.w	r8, [r2, #2]
     390:	e7aa      	b.n	2e8 <TIMER0A_Handler+0x34>
     392:	f8c3 9038 	str.w	r9, [r3, #56]	; 0x38
     396:	6853      	ldr	r3, [r2, #4]
     398:	2b05      	cmp	r3, #5
     39a:	d8a5      	bhi.n	2e8 <TIMER0A_Handler+0x34>
     39c:	6853      	ldr	r3, [r2, #4]
     39e:	3301      	adds	r3, #1
     3a0:	6053      	str	r3, [r2, #4]
     3a2:	e7a1      	b.n	2e8 <TIMER0A_Handler+0x34>
     3a4:	f001 f82f 	bl	1406 <IntMasterEnable>
     3a8:	2001      	movs	r0, #1
     3aa:	e7c5      	b.n	338 <TIMER0A_Handler+0x84>
     3ac:	40030000 	.word	0x40030000
     3b0:	20000404 	.word	0x20000404
     3b4:	200004a4 	.word	0x200004a4
     3b8:	20000400 	.word	0x20000400
     3bc:	2000047c 	.word	0x2000047c

000003c0 <main>:
     3c0:	e92d 4ff0 	stmdb	sp!, {r4, r5, r6, r7, r8, r9, sl, fp, lr}
     3c4:	4e80      	ldr	r6, [pc, #512]	; (5c8 <main+0x208>)
     3c6:	4b81      	ldr	r3, [pc, #516]	; (5cc <main+0x20c>)
     3c8:	f8df 9204 	ldr.w	r9, [pc, #516]	; 5d0 <main+0x210>
     3cc:	f8df a210 	ldr.w	sl, [pc, #528]	; 5e0 <main+0x220>
     3d0:	b087      	sub	sp, #28
     3d2:	4630      	mov	r0, r6
     3d4:	2102      	movs	r1, #2
     3d6:	f103 0b20 	add.w	fp, r3, #32
     3da:	f000 fa73 	bl	8c4 <systemInit>
     3de:	2400      	movs	r4, #0
     3e0:	f819 3004 	ldrb.w	r3, [r9, r4]
     3e4:	2b00      	cmp	r3, #0
     3e6:	d06d      	beq.n	4c4 <main+0x104>
     3e8:	4879      	ldr	r0, [pc, #484]	; (5d0 <main+0x210>)
     3ea:	2700      	movs	r7, #0
     3ec:	5507      	strb	r7, [r0, r4]
     3ee:	2c00      	cmp	r4, #0
     3f0:	d06c      	beq.n	4cc <main+0x10c>
     3f2:	4b78      	ldr	r3, [pc, #480]	; (5d4 <main+0x214>)
     3f4:	4978      	ldr	r1, [pc, #480]	; (5d8 <main+0x218>)
     3f6:	781a      	ldrb	r2, [r3, #0]
     3f8:	4638      	mov	r0, r7
     3fa:	230a      	movs	r3, #10
     3fc:	3201      	adds	r2, #1
     3fe:	f88d 300d 	strb.w	r3, [sp, #13]
     402:	f000 fafb 	bl	9fc <_write>
     406:	f10d 010d 	add.w	r1, sp, #13
     40a:	4622      	mov	r2, r4
     40c:	4638      	mov	r0, r7
     40e:	f000 faf5 	bl	9fc <_write>
     412:	4b70      	ldr	r3, [pc, #448]	; (5d4 <main+0x214>)
     414:	4870      	ldr	r0, [pc, #448]	; (5d8 <main+0x218>)
     416:	701f      	strb	r7, [r3, #0]
     418:	f10d 010e 	add.w	r1, sp, #14
     41c:	f10d 020f 	add.w	r2, sp, #15
     420:	ab05      	add	r3, sp, #20
     422:	f000 fa93 	bl	94c <parsemotorData>
     426:	b1a8      	cbz	r0, 454 <main+0x94>
     428:	9b05      	ldr	r3, [sp, #20]
     42a:	f643 428c 	movw	r2, #15500	; 0x3c8c
     42e:	4293      	cmp	r3, r2
     430:	d805      	bhi.n	43e <main+0x7e>
     432:	f5b3 7f61 	cmp.w	r3, #900	; 0x384
     436:	bf2c      	ite	cs
     438:	b29a      	uxthcs	r2, r3
     43a:	f44f 7261 	movcc.w	r2, #900	; 0x384
     43e:	f89d 300e 	ldrb.w	r3, [sp, #14]
     442:	ebc3 1303 	rsb	r3, r3, r3, lsl #4
     446:	eb06 0383 	add.w	r3, r6, r3, lsl #2
     44a:	6ad9      	ldr	r1, [r3, #44]	; 0x2c
     44c:	440a      	add	r2, r1
     44e:	f3c2 020d 	ubfx	r2, r2, #0, #14
     452:	84da      	strh	r2, [r3, #38]	; 0x26
     454:	485d      	ldr	r0, [pc, #372]	; (5cc <main+0x20c>)
     456:	43c2      	mvns	r2, r0
     458:	1c41      	adds	r1, r0, #1
     45a:	445a      	add	r2, fp
     45c:	485d      	ldr	r0, [pc, #372]	; (5d4 <main+0x214>)
     45e:	2300      	movs	r3, #0
     460:	f002 0207 	and.w	r2, r2, #7
     464:	7003      	strb	r3, [r0, #0]
     466:	700b      	strb	r3, [r1, #0]
     468:	b1da      	cbz	r2, 4a2 <main+0xe2>
     46a:	2a01      	cmp	r2, #1
     46c:	d015      	beq.n	49a <main+0xda>
     46e:	2a02      	cmp	r2, #2
     470:	d011      	beq.n	496 <main+0xd6>
     472:	2a03      	cmp	r2, #3
     474:	d00d      	beq.n	492 <main+0xd2>
     476:	2a04      	cmp	r2, #4
     478:	d009      	beq.n	48e <main+0xce>
     47a:	2a05      	cmp	r2, #5
     47c:	d005      	beq.n	48a <main+0xca>
     47e:	2a06      	cmp	r2, #6
     480:	bf18      	it	ne
     482:	f801 3f01 	strbne.w	r3, [r1, #1]!
     486:	f801 3f01 	strb.w	r3, [r1, #1]!
     48a:	f801 3f01 	strb.w	r3, [r1, #1]!
     48e:	f801 3f01 	strb.w	r3, [r1, #1]!
     492:	f801 3f01 	strb.w	r3, [r1, #1]!
     496:	f801 3f01 	strb.w	r3, [r1, #1]!
     49a:	f801 3f01 	strb.w	r3, [r1, #1]!
     49e:	4559      	cmp	r1, fp
     4a0:	d00b      	beq.n	4ba <main+0xfa>
     4a2:	704b      	strb	r3, [r1, #1]
     4a4:	1c4a      	adds	r2, r1, #1
     4a6:	3108      	adds	r1, #8
     4a8:	4559      	cmp	r1, fp
     4aa:	7053      	strb	r3, [r2, #1]
     4ac:	7093      	strb	r3, [r2, #2]
     4ae:	70d3      	strb	r3, [r2, #3]
     4b0:	7113      	strb	r3, [r2, #4]
     4b2:	7153      	strb	r3, [r2, #5]
     4b4:	7193      	strb	r3, [r2, #6]
     4b6:	71d3      	strb	r3, [r2, #7]
     4b8:	d1f3      	bne.n	4a2 <main+0xe2>
     4ba:	2400      	movs	r4, #0
     4bc:	f819 3004 	ldrb.w	r3, [r9, r4]
     4c0:	2b00      	cmp	r3, #0
     4c2:	d191      	bne.n	3e8 <main+0x28>
     4c4:	2c00      	cmp	r4, #0
     4c6:	d1f8      	bne.n	4ba <main+0xfa>
     4c8:	2401      	movs	r4, #1
     4ca:	e789      	b.n	3e0 <main+0x20>
     4cc:	69f0      	ldr	r0, [r6, #28]
     4ce:	6a31      	ldr	r1, [r6, #32]
     4d0:	f000 fb26 	bl	b20 <AS5048_readAngle>
     4d4:	b280      	uxth	r0, r0
     4d6:	84b0      	strh	r0, [r6, #36]	; 0x24
     4d8:	6db0      	ldr	r0, [r6, #88]	; 0x58
     4da:	6df1      	ldr	r1, [r6, #92]	; 0x5c
     4dc:	f000 fb20 	bl	b20 <AS5048_readAngle>
     4e0:	b280      	uxth	r0, r0
     4e2:	f8a6 0060 	strh.w	r0, [r6, #96]	; 0x60
     4e6:	f000 ff95 	bl	1414 <IntMasterDisable>
     4ea:	f8da 3000 	ldr.w	r3, [sl]
     4ee:	4e36      	ldr	r6, [pc, #216]	; (5c8 <main+0x208>)
     4f0:	9400      	str	r4, [sp, #0]
     4f2:	3301      	adds	r3, #1
     4f4:	f8ca 3000 	str.w	r3, [sl]
     4f8:	463d      	mov	r5, r7
     4fa:	9704      	str	r7, [sp, #16]
     4fc:	4634      	mov	r4, r6
     4fe:	9601      	str	r6, [sp, #4]
     500:	4b31      	ldr	r3, [pc, #196]	; (5c8 <main+0x208>)
     502:	012e      	lsls	r6, r5, #4
     504:	ebc5 0806 	rsb	r8, r5, r6
     508:	eb03 0888 	add.w	r8, r3, r8, lsl #2
     50c:	f108 0720 	add.w	r7, r8, #32
     510:	f8d8 002c 	ldr.w	r0, [r8, #44]	; 0x2c
     514:	88f9      	ldrh	r1, [r7, #6]
     516:	88ba      	ldrh	r2, [r7, #4]
     518:	b289      	uxth	r1, r1
     51a:	b292      	uxth	r2, r2
     51c:	f000 fa5c 	bl	9d8 <distBetweenValues>
     520:	9004      	str	r0, [sp, #16]
     522:	9a04      	ldr	r2, [sp, #16]
     524:	2a64      	cmp	r2, #100	; 0x64
     526:	dc22      	bgt.n	56e <main+0x1ae>
     528:	9a04      	ldr	r2, [sp, #16]
     52a:	3264      	adds	r2, #100	; 0x64
     52c:	db1f      	blt.n	56e <main+0x1ae>
     52e:	f898 2030 	ldrb.w	r2, [r8, #48]	; 0x30
     532:	2a00      	cmp	r2, #0
     534:	d042      	beq.n	5bc <main+0x1fc>
     536:	88f9      	ldrh	r1, [r7, #6]
     538:	f8b8 2028 	ldrh.w	r2, [r8, #40]	; 0x28
     53c:	b289      	uxth	r1, r1
     53e:	b292      	uxth	r2, r2
     540:	4291      	cmp	r1, r2
     542:	d03b      	beq.n	5bc <main+0x1fc>
     544:	f8b8 2028 	ldrh.w	r2, [r8, #40]	; 0x28
     548:	b292      	uxth	r2, r2
     54a:	80fa      	strh	r2, [r7, #6]
     54c:	3501      	adds	r5, #1
     54e:	2d02      	cmp	r5, #2
     550:	f104 043c 	add.w	r4, r4, #60	; 0x3c
     554:	d1d4      	bne.n	500 <main+0x140>
     556:	f8da 3000 	ldr.w	r3, [sl]
     55a:	3b01      	subs	r3, #1
     55c:	e89d 0050 	ldmia.w	sp, {r4, r6}
     560:	f8ca 3000 	str.w	r3, [sl]
     564:	2b00      	cmp	r3, #0
     566:	d1ad      	bne.n	4c4 <main+0x104>
     568:	f000 ff4d 	bl	1406 <IntMasterEnable>
     56c:	e7aa      	b.n	4c4 <main+0x104>
     56e:	9a04      	ldr	r2, [sp, #16]
     570:	481a      	ldr	r0, [pc, #104]	; (5dc <main+0x21c>)
     572:	4282      	cmp	r2, r0
     574:	db11      	blt.n	59a <main+0x1da>
     576:	9a04      	ldr	r2, [sp, #16]
     578:	f5b2 7f7a 	cmp.w	r2, #1000	; 0x3e8
     57c:	da0d      	bge.n	59a <main+0x1da>
     57e:	2201      	movs	r2, #1
     580:	2300      	movs	r3, #0
     582:	63a3      	str	r3, [r4, #56]	; 0x38
     584:	f884 2032 	strb.w	r2, [r4, #50]	; 0x32
     588:	6362      	str	r2, [r4, #52]	; 0x34
     58a:	9a04      	ldr	r2, [sp, #16]
     58c:	490e      	ldr	r1, [pc, #56]	; (5c8 <main+0x208>)
     58e:	43d2      	mvns	r2, r2
     590:	0fd2      	lsrs	r2, r2, #31
     592:	4628      	mov	r0, r5
     594:	f000 f8ec 	bl	770 <MOTOR_ENABLE>
     598:	e7d8      	b.n	54c <main+0x18c>
     59a:	480b      	ldr	r0, [pc, #44]	; (5c8 <main+0x208>)
     59c:	1b72      	subs	r2, r6, r5
     59e:	eb00 0282 	add.w	r2, r0, r2, lsl #2
     5a2:	3230      	adds	r2, #48	; 0x30
     5a4:	7892      	ldrb	r2, [r2, #2]
     5a6:	2a02      	cmp	r2, #2
     5a8:	d1ef      	bne.n	58a <main+0x1ca>
     5aa:	2206      	movs	r2, #6
     5ac:	f04f 0300 	mov.w	r3, #0
     5b0:	2000      	movs	r0, #0
     5b2:	f884 3032 	strb.w	r3, [r4, #50]	; 0x32
     5b6:	63a0      	str	r0, [r4, #56]	; 0x38
     5b8:	6362      	str	r2, [r4, #52]	; 0x34
     5ba:	e7e6      	b.n	58a <main+0x1ca>
     5bc:	4628      	mov	r0, r5
     5be:	4902      	ldr	r1, [pc, #8]	; (5c8 <main+0x208>)
     5c0:	f000 f902 	bl	7c8 <MOTOR_DISABLE>
     5c4:	e7c2      	b.n	54c <main+0x18c>
     5c6:	bf00      	nop
     5c8:	20000404 	.word	0x20000404
     5cc:	20000483 	.word	0x20000483
     5d0:	2000047c 	.word	0x2000047c
     5d4:	20000480 	.word	0x20000480
     5d8:	20000484 	.word	0x20000484
     5dc:	fffffc19 	.word	0xfffffc19
     5e0:	200004a4 	.word	0x200004a4

000005e4 <NmiSR>:
     5e4:	e7fe      	b.n	5e4 <NmiSR>
     5e6:	bf00      	nop

000005e8 <FaultISR>:
     5e8:	e7fe      	b.n	5e8 <FaultISR>
     5ea:	bf00      	nop

000005ec <IntDefaultHandler>:
     5ec:	e7fe      	b.n	5ec <IntDefaultHandler>
     5ee:	bf00      	nop

000005f0 <ResetISR>:
     5f0:	4911      	ldr	r1, [pc, #68]	; (638 <zero_loop+0x1e>)
     5f2:	4b12      	ldr	r3, [pc, #72]	; (63c <zero_loop+0x22>)
     5f4:	4299      	cmp	r1, r3
     5f6:	b410      	push	{r4}
     5f8:	d20b      	bcs.n	612 <ResetISR+0x22>
     5fa:	43c8      	mvns	r0, r1
     5fc:	4418      	add	r0, r3
     5fe:	f020 0003 	bic.w	r0, r0, #3
     602:	4c0f      	ldr	r4, [pc, #60]	; (640 <zero_loop+0x26>)
     604:	3004      	adds	r0, #4
     606:	2300      	movs	r3, #0
     608:	58e2      	ldr	r2, [r4, r3]
     60a:	50ca      	str	r2, [r1, r3]
     60c:	3304      	adds	r3, #4
     60e:	4283      	cmp	r3, r0
     610:	d1fa      	bne.n	608 <ResetISR+0x18>
     612:	480d      	ldr	r0, [pc, #52]	; (648 <zero_loop+0x2e>)
     614:	490d      	ldr	r1, [pc, #52]	; (64c <zero_loop+0x32>)
     616:	f04f 0200 	mov.w	r2, #0

0000061a <zero_loop>:
     61a:	4288      	cmp	r0, r1
     61c:	bfb8      	it	lt
     61e:	f840 2b04 	strlt.w	r2, [r0], #4
     622:	f6ff affa 	blt.w	61a <zero_loop>
     626:	4b07      	ldr	r3, [pc, #28]	; (644 <zero_loop+0x2a>)
     628:	f85d 4b04 	ldr.w	r4, [sp], #4
     62c:	681a      	ldr	r2, [r3, #0]
     62e:	f442 0270 	orr.w	r2, r2, #15728640	; 0xf00000
     632:	601a      	str	r2, [r3, #0]
     634:	f7ff bec4 	b.w	3c0 <main>
     638:	20000000 	.word	0x20000000
     63c:	2000047c 	.word	0x2000047c
     640:	00003010 	.word	0x00003010
     644:	e000ed88 	.word	0xe000ed88
     648:	2000047c 	.word	0x2000047c
     64c:	20000620 	.word	0x20000620

00000650 <setMotorState>:
     650:	f881 0032 	strb.w	r0, [r1, #50]	; 0x32
     654:	b130      	cbz	r0, 664 <setMotorState+0x14>
     656:	2801      	cmp	r0, #1
     658:	f04f 0300 	mov.w	r3, #0
     65c:	bf08      	it	eq
     65e:	6348      	streq	r0, [r1, #52]	; 0x34
     660:	638b      	str	r3, [r1, #56]	; 0x38
     662:	4770      	bx	lr
     664:	2306      	movs	r3, #6
     666:	634b      	str	r3, [r1, #52]	; 0x34
     668:	2300      	movs	r3, #0
     66a:	638b      	str	r3, [r1, #56]	; 0x38
     66c:	4770      	bx	lr
     66e:	bf00      	nop

00000670 <__error__>:
     670:	4801      	ldr	r0, [pc, #4]	; (678 <__error__+0x8>)
     672:	f000 b9c3 	b.w	9fc <_write>
     676:	bf00      	nop
     678:	000029c0 	.word	0x000029c0

0000067c <strcmp>:
     67c:	b410      	push	{r4}
     67e:	780b      	ldrb	r3, [r1, #0]
     680:	7802      	ldrb	r2, [r0, #0]
     682:	ea53 0402 	orrs.w	r4, r3, r2
     686:	d107      	bne.n	698 <strcmp+0x1c>
     688:	e00c      	b.n	6a4 <strcmp+0x28>
     68a:	f810 2f01 	ldrb.w	r2, [r0, #1]!
     68e:	f811 3f01 	ldrb.w	r3, [r1, #1]!
     692:	ea53 0402 	orrs.w	r4, r3, r2
     696:	d005      	beq.n	6a4 <strcmp+0x28>
     698:	429a      	cmp	r2, r3
     69a:	d0f6      	beq.n	68a <strcmp+0xe>
     69c:	1ad0      	subs	r0, r2, r3
     69e:	f85d 4b04 	ldr.w	r4, [sp], #4
     6a2:	4770      	bx	lr
     6a4:	4620      	mov	r0, r4
     6a6:	f85d 4b04 	ldr.w	r4, [sp], #4
     6aa:	4770      	bx	lr

000006ac <TimerInit>:
     6ac:	b538      	push	{r3, r4, r5, lr}
     6ae:	4d15      	ldr	r5, [pc, #84]	; (704 <TimerInit+0x58>)
     6b0:	4c15      	ldr	r4, [pc, #84]	; (708 <TimerInit+0x5c>)
     6b2:	4628      	mov	r0, r5
     6b4:	f001 f9b4 	bl	1a20 <SysCtlPeripheralEnable>
     6b8:	2005      	movs	r0, #5
     6ba:	f001 faeb 	bl	1c94 <SysCtlDelay>
     6be:	4628      	mov	r0, r5
     6c0:	f001 f98a 	bl	19d8 <SysCtlPeripheralReset>
     6c4:	2005      	movs	r0, #5
     6c6:	f001 fae5 	bl	1c94 <SysCtlDelay>
     6ca:	4620      	mov	r0, r4
     6cc:	2122      	movs	r1, #34	; 0x22
     6ce:	f001 fe7f 	bl	23d0 <TimerConfigure>
     6d2:	4a0e      	ldr	r2, [pc, #56]	; (70c <TimerInit+0x60>)
     6d4:	4b0e      	ldr	r3, [pc, #56]	; (710 <TimerInit+0x64>)
     6d6:	6812      	ldr	r2, [r2, #0]
     6d8:	fba3 1202 	umull	r1, r2, r3, r2
     6dc:	0952      	lsrs	r2, r2, #5
     6de:	4620      	mov	r0, r4
     6e0:	21ff      	movs	r1, #255	; 0xff
     6e2:	f001 ff47 	bl	2574 <TimerLoadSet>
     6e6:	f000 fe8e 	bl	1406 <IntMasterEnable>
     6ea:	4620      	mov	r0, r4
     6ec:	2101      	movs	r1, #1
     6ee:	f001 ff9e 	bl	262e <TimerIntEnable>
     6f2:	2023      	movs	r0, #35	; 0x23
     6f4:	f000 fefa 	bl	14ec <IntEnable>
     6f8:	4620      	mov	r0, r4
     6fa:	21ff      	movs	r1, #255	; 0xff
     6fc:	e8bd 4038 	ldmia.w	sp!, {r3, r4, r5, lr}
     700:	f001 be54 	b.w	23ac <TimerEnable>
     704:	f0000400 	.word	0xf0000400
     708:	40030000 	.word	0x40030000
     70c:	200005b4 	.word	0x200005b4
     710:	10624dd3 	.word	0x10624dd3

00000714 <UARTInit>:
     714:	b510      	push	{r4, lr}
     716:	4812      	ldr	r0, [pc, #72]	; (760 <UARTInit+0x4c>)
     718:	4c12      	ldr	r4, [pc, #72]	; (764 <UARTInit+0x50>)
     71a:	f001 f981 	bl	1a20 <SysCtlPeripheralEnable>
     71e:	4812      	ldr	r0, [pc, #72]	; (768 <UARTInit+0x54>)
     720:	f001 f97e 	bl	1a20 <SysCtlPeripheralEnable>
     724:	2001      	movs	r0, #1
     726:	f000 fe2d 	bl	1384 <GPIOPinConfigure>
     72a:	f240 4001 	movw	r0, #1025	; 0x401
     72e:	f000 fe29 	bl	1384 <GPIOPinConfigure>
     732:	f04f 2040 	mov.w	r0, #1073758208	; 0x40004000
     736:	2103      	movs	r1, #3
     738:	f000 fda1 	bl	127e <GPIOPinTypeUART>
     73c:	4b0b      	ldr	r3, [pc, #44]	; (76c <UARTInit+0x58>)
     73e:	4620      	mov	r0, r4
     740:	6819      	ldr	r1, [r3, #0]
     742:	f44f 5216 	mov.w	r2, #9600	; 0x2580
     746:	2360      	movs	r3, #96	; 0x60
     748:	f002 f807 	bl	275a <UARTConfigSetExpClk>
     74c:	2015      	movs	r0, #21
     74e:	f000 fecd 	bl	14ec <IntEnable>
     752:	4620      	mov	r0, r4
     754:	2150      	movs	r1, #80	; 0x50
     756:	e8bd 4010 	ldmia.w	sp!, {r4, lr}
     75a:	f002 b8ce 	b.w	28fa <UARTIntEnable>
     75e:	bf00      	nop
     760:	f0001800 	.word	0xf0001800
     764:	4000c000 	.word	0x4000c000
     768:	f0000800 	.word	0xf0000800
     76c:	200005b4 	.word	0x200005b4

00000770 <MOTOR_ENABLE>:
     770:	e92d 41f0 	stmdb	sp!, {r4, r5, r6, r7, r8, lr}
     774:	4606      	mov	r6, r0
     776:	460f      	mov	r7, r1
     778:	ebc6 1606 	rsb	r6, r6, r6, lsl #4
     77c:	eb07 0486 	add.w	r4, r7, r6, lsl #2
     780:	4d10      	ldr	r5, [pc, #64]	; (7c4 <MOTOR_ENABLE+0x54>)
     782:	4690      	mov	r8, r2
     784:	f000 fe46 	bl	1414 <IntMasterDisable>
     788:	f894 3031 	ldrb.w	r3, [r4, #49]	; 0x31
     78c:	682a      	ldr	r2, [r5, #0]
     78e:	7a21      	ldrb	r1, [r4, #8]
     790:	68e0      	ldr	r0, [r4, #12]
     792:	3201      	adds	r2, #1
     794:	4543      	cmp	r3, r8
     796:	602a      	str	r2, [r5, #0]
     798:	bf0a      	itet	eq
     79a:	43ca      	mvneq	r2, r1
     79c:	460a      	movne	r2, r1
     79e:	b2d2      	uxtbeq	r2, r2
     7a0:	f000 fc60 	bl	1064 <GPIOPinWrite>
     7a4:	7c21      	ldrb	r1, [r4, #16]
     7a6:	6960      	ldr	r0, [r4, #20]
     7a8:	460a      	mov	r2, r1
     7aa:	f000 fc5b 	bl	1064 <GPIOPinWrite>
     7ae:	682b      	ldr	r3, [r5, #0]
     7b0:	3b01      	subs	r3, #1
     7b2:	602b      	str	r3, [r5, #0]
     7b4:	b10b      	cbz	r3, 7ba <MOTOR_ENABLE+0x4a>
     7b6:	e8bd 81f0 	ldmia.w	sp!, {r4, r5, r6, r7, r8, pc}
     7ba:	e8bd 41f0 	ldmia.w	sp!, {r4, r5, r6, r7, r8, lr}
     7be:	f000 be22 	b.w	1406 <IntMasterEnable>
     7c2:	bf00      	nop
     7c4:	200005a8 	.word	0x200005a8

000007c8 <MOTOR_DISABLE>:
     7c8:	b5f8      	push	{r3, r4, r5, r6, r7, lr}
     7ca:	4604      	mov	r4, r0
     7cc:	460d      	mov	r5, r1
     7ce:	ebc4 1404 	rsb	r4, r4, r4, lsl #4
     7d2:	f000 fe1f 	bl	1414 <IntMasterDisable>
     7d6:	eb05 0384 	add.w	r3, r5, r4, lsl #2
     7da:	4c0c      	ldr	r4, [pc, #48]	; (80c <MOTOR_DISABLE+0x44>)
     7dc:	7c19      	ldrb	r1, [r3, #16]
     7de:	6825      	ldr	r5, [r4, #0]
     7e0:	6958      	ldr	r0, [r3, #20]
     7e2:	43ca      	mvns	r2, r1
     7e4:	2702      	movs	r7, #2
     7e6:	2600      	movs	r6, #0
     7e8:	f883 7032 	strb.w	r7, [r3, #50]	; 0x32
     7ec:	639e      	str	r6, [r3, #56]	; 0x38
     7ee:	b2d2      	uxtb	r2, r2
     7f0:	1c6b      	adds	r3, r5, #1
     7f2:	6023      	str	r3, [r4, #0]
     7f4:	f000 fc36 	bl	1064 <GPIOPinWrite>
     7f8:	6823      	ldr	r3, [r4, #0]
     7fa:	3b01      	subs	r3, #1
     7fc:	6023      	str	r3, [r4, #0]
     7fe:	b103      	cbz	r3, 802 <MOTOR_DISABLE+0x3a>
     800:	bdf8      	pop	{r3, r4, r5, r6, r7, pc}
     802:	e8bd 40f8 	ldmia.w	sp!, {r3, r4, r5, r6, r7, lr}
     806:	f000 bdfe 	b.w	1406 <IntMasterEnable>
     80a:	bf00      	nop
     80c:	200005a8 	.word	0x200005a8

00000810 <motorsInit>:
     810:	e92d 43f8 	stmdb	sp!, {r3, r4, r5, r6, r7, r8, r9, lr}
     814:	4604      	mov	r4, r0
     816:	4829      	ldr	r0, [pc, #164]	; (8bc <motorsInit+0xac>)
     818:	460e      	mov	r6, r1
     81a:	f001 f901 	bl	1a20 <SysCtlPeripheralEnable>
     81e:	4828      	ldr	r0, [pc, #160]	; (8c0 <motorsInit+0xb0>)
     820:	f001 f8fe 	bl	1a20 <SysCtlPeripheralEnable>
     824:	2e00      	cmp	r6, #0
     826:	d046      	beq.n	8b6 <motorsInit+0xa6>
     828:	2500      	movs	r5, #0
     82a:	3438      	adds	r4, #56	; 0x38
     82c:	46a9      	mov	r9, r5
     82e:	f04f 0806 	mov.w	r8, #6
     832:	2702      	movs	r7, #2
     834:	f834 3c10 	ldrh.w	r3, [r4, #-16]
     838:	f824 3c12 	strh.w	r3, [r4, #-18]
     83c:	f854 0c2c 	ldr.w	r0, [r4, #-44]
     840:	f814 1c30 	ldrb.w	r1, [r4, #-48]
     844:	f8c4 9000 	str.w	r9, [r4]
     848:	f844 8c04 	str.w	r8, [r4, #-4]
     84c:	f804 7c06 	strb.w	r7, [r4, #-6]
     850:	f824 9c14 	strh.w	r9, [r4, #-20]
     854:	f000 fc6b 	bl	112e <GPIOPinTypeGPIOOutput>
     858:	f814 1c30 	ldrb.w	r1, [r4, #-48]
     85c:	f854 0c2c 	ldr.w	r0, [r4, #-44]
     860:	460a      	mov	r2, r1
     862:	f000 fbff 	bl	1064 <GPIOPinWrite>
     866:	f854 0c24 	ldr.w	r0, [r4, #-36]
     86a:	f814 1c28 	ldrb.w	r1, [r4, #-40]
     86e:	f000 fc5e 	bl	112e <GPIOPinTypeGPIOOutput>
     872:	f814 1c28 	ldrb.w	r1, [r4, #-40]
     876:	f854 0c24 	ldr.w	r0, [r4, #-36]
     87a:	43ca      	mvns	r2, r1
     87c:	b2d2      	uxtb	r2, r2
     87e:	f000 fbf1 	bl	1064 <GPIOPinWrite>
     882:	f854 0c34 	ldr.w	r0, [r4, #-52]
     886:	f814 1c38 	ldrb.w	r1, [r4, #-56]
     88a:	f000 fc50 	bl	112e <GPIOPinTypeGPIOOutput>
     88e:	f814 1c38 	ldrb.w	r1, [r4, #-56]
     892:	f854 0c34 	ldr.w	r0, [r4, #-52]
     896:	43ca      	mvns	r2, r1
     898:	b2d2      	uxtb	r2, r2
     89a:	f000 fbe3 	bl	1064 <GPIOPinWrite>
     89e:	f834 3c10 	ldrh.w	r3, [r4, #-16]
     8a2:	3501      	adds	r5, #1
     8a4:	f5a3 53ff 	sub.w	r3, r3, #8160	; 0x1fe0
     8a8:	3b1f      	subs	r3, #31
     8aa:	42b5      	cmp	r5, r6
     8ac:	f844 3c0c 	str.w	r3, [r4, #-12]
     8b0:	f104 043c 	add.w	r4, r4, #60	; 0x3c
     8b4:	dbbe      	blt.n	834 <motorsInit+0x24>
     8b6:	e8bd 83f8 	ldmia.w	sp!, {r3, r4, r5, r6, r7, r8, r9, pc}
     8ba:	bf00      	nop
     8bc:	f0000801 	.word	0xf0000801
     8c0:	f0000802 	.word	0xf0000802

000008c4 <systemInit>:
     8c4:	b538      	push	{r3, r4, r5, lr}
     8c6:	4605      	mov	r5, r0
     8c8:	460c      	mov	r4, r1
     8ca:	480a      	ldr	r0, [pc, #40]	; (8f4 <systemInit+0x30>)
     8cc:	490a      	ldr	r1, [pc, #40]	; (8f8 <systemInit+0x34>)
     8ce:	f001 fa21 	bl	1d14 <SysCtlClockFreqSet>
     8d2:	4b0a      	ldr	r3, [pc, #40]	; (8fc <systemInit+0x38>)
     8d4:	6018      	str	r0, [r3, #0]
     8d6:	f7ff ff1d 	bl	714 <UARTInit>
     8da:	f7ff fee7 	bl	6ac <TimerInit>
     8de:	4628      	mov	r0, r5
     8e0:	4621      	mov	r1, r4
     8e2:	f7ff ff95 	bl	810 <motorsInit>
     8e6:	4628      	mov	r0, r5
     8e8:	4621      	mov	r1, r4
     8ea:	e8bd 4038 	ldmia.w	sp!, {r3, r4, r5, lr}
     8ee:	f000 b8fd 	b.w	aec <AS5048_init>
     8f2:	bf00      	nop
     8f4:	f1000680 	.word	0xf1000680
     8f8:	07270e00 	.word	0x07270e00
     8fc:	200005b4 	.word	0x200005b4

00000900 <stringToInt>:
     900:	b430      	push	{r4, r5}
     902:	7803      	ldrb	r3, [r0, #0]
     904:	2b2d      	cmp	r3, #45	; 0x2d
     906:	bf14      	ite	ne
     908:	2300      	movne	r3, #0
     90a:	2301      	moveq	r3, #1
     90c:	4619      	mov	r1, r3
     90e:	461d      	mov	r5, r3
     910:	5cc3      	ldrb	r3, [r0, r3]
     912:	b1c3      	cbz	r3, 946 <stringToInt+0x46>
     914:	2b0d      	cmp	r3, #13
     916:	f04f 0200 	mov.w	r2, #0
     91a:	d102      	bne.n	922 <stringToInt+0x22>
     91c:	e00c      	b.n	938 <stringToInt+0x38>
     91e:	2b0d      	cmp	r3, #13
     920:	d00a      	beq.n	938 <stringToInt+0x38>
     922:	3101      	adds	r1, #1
     924:	b2c9      	uxtb	r1, r1
     926:	f1a3 0430 	sub.w	r4, r3, #48	; 0x30
     92a:	5c43      	ldrb	r3, [r0, r1]
     92c:	eb02 0282 	add.w	r2, r2, r2, lsl #2
     930:	eb04 0242 	add.w	r2, r4, r2, lsl #1
     934:	2b00      	cmp	r3, #0
     936:	d1f2      	bne.n	91e <stringToInt+0x1e>
     938:	b115      	cbz	r5, 940 <stringToInt+0x40>
     93a:	4250      	negs	r0, r2
     93c:	bc30      	pop	{r4, r5}
     93e:	4770      	bx	lr
     940:	4610      	mov	r0, r2
     942:	bc30      	pop	{r4, r5}
     944:	4770      	bx	lr
     946:	461a      	mov	r2, r3
     948:	e7f6      	b.n	938 <stringToInt+0x38>
     94a:	bf00      	nop

0000094c <parsemotorData>:
     94c:	b510      	push	{r4, lr}
     94e:	7804      	ldrb	r4, [r0, #0]
     950:	3c30      	subs	r4, #48	; 0x30
     952:	700c      	strb	r4, [r1, #0]
     954:	7841      	ldrb	r1, [r0, #1]
     956:	293a      	cmp	r1, #58	; 0x3a
     958:	b082      	sub	sp, #8
     95a:	d002      	beq.n	962 <parsemotorData+0x16>
     95c:	2000      	movs	r0, #0
     95e:	b002      	add	sp, #8
     960:	bd10      	pop	{r4, pc}
     962:	3002      	adds	r0, #2
     964:	9201      	str	r2, [sp, #4]
     966:	9300      	str	r3, [sp, #0]
     968:	f7ff ffca 	bl	900 <stringToInt>
     96c:	1e01      	subs	r1, r0, #0
     96e:	9a01      	ldr	r2, [sp, #4]
     970:	9b00      	ldr	r3, [sp, #0]
     972:	db05      	blt.n	980 <parsemotorData+0x34>
     974:	2000      	movs	r0, #0
     976:	7010      	strb	r0, [r2, #0]
     978:	2001      	movs	r0, #1
     97a:	6019      	str	r1, [r3, #0]
     97c:	b002      	add	sp, #8
     97e:	bd10      	pop	{r4, pc}
     980:	4249      	negs	r1, r1
     982:	2001      	movs	r0, #1
     984:	7010      	strb	r0, [r2, #0]
     986:	6019      	str	r1, [r3, #0]
     988:	e7e9      	b.n	95e <parsemotorData+0x12>
     98a:	bf00      	nop

0000098c <printHex16>:
     98c:	b530      	push	{r4, r5, lr}
     98e:	b085      	sub	sp, #20
     990:	210a      	movs	r1, #10
     992:	2300      	movs	r3, #0
     994:	2530      	movs	r5, #48	; 0x30
     996:	2478      	movs	r4, #120	; 0x78
     998:	220d      	movs	r2, #13
     99a:	f88d 100a 	strb.w	r1, [sp, #10]
     99e:	f88d 300c 	strb.w	r3, [sp, #12]
     9a2:	f88d 5004 	strb.w	r5, [sp, #4]
     9a6:	f88d 4005 	strb.w	r4, [sp, #5]
     9aa:	f88d 200b 	strb.w	r2, [sp, #11]
     9ae:	2305      	movs	r3, #5
     9b0:	a901      	add	r1, sp, #4
     9b2:	f000 020f 	and.w	r2, r0, #15
     9b6:	2a09      	cmp	r2, #9
     9b8:	bfcc      	ite	gt
     9ba:	3237      	addgt	r2, #55	; 0x37
     9bc:	3230      	addle	r2, #48	; 0x30
     9be:	54ca      	strb	r2, [r1, r3]
     9c0:	3b01      	subs	r3, #1
     9c2:	2b01      	cmp	r3, #1
     9c4:	ea4f 1010 	mov.w	r0, r0, lsr #4
     9c8:	d1f3      	bne.n	9b2 <printHex16+0x26>
     9ca:	2209      	movs	r2, #9
     9cc:	2000      	movs	r0, #0
     9ce:	f000 f815 	bl	9fc <_write>
     9d2:	b005      	add	sp, #20
     9d4:	bd30      	pop	{r4, r5, pc}
     9d6:	bf00      	nop

000009d8 <distBetweenValues>:
     9d8:	1a09      	subs	r1, r1, r0
     9da:	1a12      	subs	r2, r2, r0
     9dc:	f3c1 010d 	ubfx	r1, r1, #0, #14
     9e0:	f3c2 000d 	ubfx	r0, r2, #0, #14
     9e4:	1a08      	subs	r0, r1, r0
     9e6:	4770      	bx	lr

000009e8 <fputc>:
     9e8:	b508      	push	{r3, lr}
     9ea:	b2c1      	uxtb	r1, r0
     9ec:	4802      	ldr	r0, [pc, #8]	; (9f8 <fputc+0x10>)
     9ee:	f001 ff4d 	bl	288c <UARTCharPutNonBlocking>
     9f2:	2001      	movs	r0, #1
     9f4:	bd08      	pop	{r3, pc}
     9f6:	bf00      	nop
     9f8:	4000c000 	.word	0x4000c000

000009fc <_write>:
     9fc:	b570      	push	{r4, r5, r6, lr}
     9fe:	1e16      	subs	r6, r2, #0
     a00:	460c      	mov	r4, r1
     a02:	dd0c      	ble.n	a1e <_write+0x22>
     a04:	7809      	ldrb	r1, [r1, #0]
     a06:	b151      	cbz	r1, a1e <_write+0x22>
     a08:	1e75      	subs	r5, r6, #1
     a0a:	4425      	add	r5, r4
     a0c:	e002      	b.n	a14 <_write+0x18>
     a0e:	f814 1f01 	ldrb.w	r1, [r4, #1]!
     a12:	b121      	cbz	r1, a1e <_write+0x22>
     a14:	4803      	ldr	r0, [pc, #12]	; (a24 <_write+0x28>)
     a16:	f001 ff39 	bl	288c <UARTCharPutNonBlocking>
     a1a:	42ac      	cmp	r4, r5
     a1c:	d1f7      	bne.n	a0e <_write+0x12>
     a1e:	4630      	mov	r0, r6
     a20:	bd70      	pop	{r4, r5, r6, pc}
     a22:	bf00      	nop
     a24:	4000c000 	.word	0x4000c000

00000a28 <_exit>:
     a28:	e7fe      	b.n	a28 <_exit>
     a2a:	bf00      	nop

00000a2c <read_AS5048>:
     a2c:	b5f0      	push	{r4, r5, r6, r7, lr}
     a2e:	f643 73fe 	movw	r3, #16382	; 0x3ffe
     a32:	429a      	cmp	r2, r3
     a34:	b085      	sub	sp, #20
     a36:	4607      	mov	r7, r0
     a38:	460e      	mov	r6, r1
     a3a:	f442 4480 	orr.w	r4, r2, #16384	; 0x4000
     a3e:	d016      	beq.n	a6e <read_AS5048+0x42>
     a40:	f643 73ff 	movw	r3, #16383	; 0x3fff
     a44:	429a      	cmp	r2, r3
     a46:	d049      	beq.n	adc <read_AS5048+0xb0>
     a48:	2500      	movs	r5, #0
     a4a:	462b      	mov	r3, r5
     a4c:	fa44 f203 	asr.w	r2, r4, r3
     a50:	f012 0f01 	tst.w	r2, #1
     a54:	f103 0301 	add.w	r3, r3, #1
     a58:	bf18      	it	ne
     a5a:	3501      	addne	r5, #1
     a5c:	2b0e      	cmp	r3, #14
     a5e:	d1f5      	bne.n	a4c <read_AS5048+0x20>
     a60:	f015 0f01 	tst.w	r5, #1
     a64:	bf14      	ite	ne
     a66:	2300      	movne	r3, #0
     a68:	f44f 4300 	moveq.w	r3, #32768	; 0x8000
     a6c:	431c      	orrs	r4, r3
     a6e:	f8ad 4006 	strh.w	r4, [sp, #6]
     a72:	4638      	mov	r0, r7
     a74:	4631      	mov	r1, r6
     a76:	f000 f8e3 	bl	c40 <spi_open>
     a7a:	f10d 0006 	add.w	r0, sp, #6
     a7e:	2101      	movs	r1, #1
     a80:	f000 f8e8 	bl	c54 <spi_write16>
     a84:	4638      	mov	r0, r7
     a86:	4631      	mov	r1, r6
     a88:	f000 f8e0 	bl	c4c <spi_close>
     a8c:	2300      	movs	r3, #0
     a8e:	9302      	str	r3, [sp, #8]
     a90:	9b02      	ldr	r3, [sp, #8]
     a92:	2b13      	cmp	r3, #19
     a94:	dd1b      	ble.n	ace <read_AS5048+0xa2>
     a96:	ac04      	add	r4, sp, #16
     a98:	2300      	movs	r3, #0
     a9a:	4638      	mov	r0, r7
     a9c:	4631      	mov	r1, r6
     a9e:	f844 3d04 	str.w	r3, [r4, #-4]!
     aa2:	f000 f8cd 	bl	c40 <spi_open>
     aa6:	f10d 0006 	add.w	r0, sp, #6
     aaa:	2101      	movs	r1, #1
     aac:	f000 f8d2 	bl	c54 <spi_write16>
     ab0:	480d      	ldr	r0, [pc, #52]	; (ae8 <read_AS5048+0xbc>)
     ab2:	4621      	mov	r1, r4
     ab4:	f000 fe8f 	bl	17d6 <SSIDataGetNonBlocking>
     ab8:	2800      	cmp	r0, #0
     aba:	d1f9      	bne.n	ab0 <read_AS5048+0x84>
     abc:	4638      	mov	r0, r7
     abe:	4631      	mov	r1, r6
     ac0:	f000 f8c4 	bl	c4c <spi_close>
     ac4:	9803      	ldr	r0, [sp, #12]
     ac6:	f3c0 000d 	ubfx	r0, r0, #0, #14
     aca:	b005      	add	sp, #20
     acc:	bdf0      	pop	{r4, r5, r6, r7, pc}
     ace:	9b02      	ldr	r3, [sp, #8]
     ad0:	3301      	adds	r3, #1
     ad2:	9302      	str	r3, [sp, #8]
     ad4:	9b02      	ldr	r3, [sp, #8]
     ad6:	2b13      	cmp	r3, #19
     ad8:	dcdd      	bgt.n	a96 <read_AS5048+0x6a>
     ada:	e7f8      	b.n	ace <read_AS5048+0xa2>
     adc:	f64f 73ff 	movw	r3, #65535	; 0xffff
     ae0:	f8ad 3006 	strh.w	r3, [sp, #6]
     ae4:	e7c5      	b.n	a72 <read_AS5048+0x46>
     ae6:	bf00      	nop
     ae8:	40008000 	.word	0x40008000

00000aec <AS5048_init>:
     aec:	f000 b862 	b.w	bb4 <spi_init>

00000af0 <gitParityBit>:
     af0:	2300      	movs	r3, #0
     af2:	4619      	mov	r1, r3
     af4:	fa40 f203 	asr.w	r2, r0, r3
     af8:	f012 0f01 	tst.w	r2, #1
     afc:	f103 0301 	add.w	r3, r3, #1
     b00:	bf18      	it	ne
     b02:	3101      	addne	r1, #1
     b04:	2b0e      	cmp	r3, #14
     b06:	d1f5      	bne.n	af4 <gitParityBit+0x4>
     b08:	f011 0f01 	tst.w	r1, #1
     b0c:	bf0c      	ite	eq
     b0e:	f44f 4000 	moveq.w	r0, #32768	; 0x8000
     b12:	2000      	movne	r0, #0
     b14:	4770      	bx	lr
     b16:	bf00      	nop

00000b18 <AS5048_readMagnitude>:
     b18:	f643 72fe 	movw	r2, #16382	; 0x3ffe
     b1c:	f7ff bf86 	b.w	a2c <read_AS5048>

00000b20 <AS5048_readAngle>:
     b20:	f643 72ff 	movw	r2, #16383	; 0x3fff
     b24:	f7ff bf82 	b.w	a2c <read_AS5048>

00000b28 <errorFlag_clearrr>:
     b28:	b5f0      	push	{r4, r5, r6, r7, lr}
     b2a:	b085      	sub	sp, #20
     b2c:	ac04      	add	r4, sp, #16
     b2e:	f24c 0301 	movw	r3, #49153	; 0xc001
     b32:	f824 3d0a 	strh.w	r3, [r4, #-10]!
     b36:	4607      	mov	r7, r0
     b38:	460e      	mov	r6, r1
     b3a:	f000 f881 	bl	c40 <spi_open>
     b3e:	4620      	mov	r0, r4
     b40:	2101      	movs	r1, #1
     b42:	f000 f887 	bl	c54 <spi_write16>
     b46:	4638      	mov	r0, r7
     b48:	4631      	mov	r1, r6
     b4a:	f000 f87f 	bl	c4c <spi_close>
     b4e:	2300      	movs	r3, #0
     b50:	9302      	str	r3, [sp, #8]
     b52:	9b02      	ldr	r3, [sp, #8]
     b54:	2b13      	cmp	r3, #19
     b56:	dd22      	ble.n	b9e <errorFlag_clearrr+0x76>
     b58:	4638      	mov	r0, r7
     b5a:	4631      	mov	r1, r6
     b5c:	f000 f870 	bl	c40 <spi_open>
     b60:	4620      	mov	r0, r4
     b62:	2101      	movs	r1, #1
     b64:	ac04      	add	r4, sp, #16
     b66:	f000 f875 	bl	c54 <spi_write16>
     b6a:	2300      	movs	r3, #0
     b6c:	f844 3d04 	str.w	r3, [r4, #-4]!
     b70:	480e      	ldr	r0, [pc, #56]	; (bac <errorFlag_clearrr+0x84>)
     b72:	4621      	mov	r1, r4
     b74:	f000 fe2f 	bl	17d6 <SSIDataGetNonBlocking>
     b78:	4605      	mov	r5, r0
     b7a:	2800      	cmp	r0, #0
     b7c:	d1f8      	bne.n	b70 <errorFlag_clearrr+0x48>
     b7e:	4638      	mov	r0, r7
     b80:	4631      	mov	r1, r6
     b82:	f000 f863 	bl	c4c <spi_close>
     b86:	490a      	ldr	r1, [pc, #40]	; (bb0 <errorFlag_clearrr+0x88>)
     b88:	2206      	movs	r2, #6
     b8a:	4628      	mov	r0, r5
     b8c:	f7ff ff36 	bl	9fc <_write>
     b90:	9803      	ldr	r0, [sp, #12]
     b92:	f3c0 000d 	ubfx	r0, r0, #0, #14
     b96:	f7ff fef9 	bl	98c <printHex16>
     b9a:	b005      	add	sp, #20
     b9c:	bdf0      	pop	{r4, r5, r6, r7, pc}
     b9e:	9b02      	ldr	r3, [sp, #8]
     ba0:	3301      	adds	r3, #1
     ba2:	9302      	str	r3, [sp, #8]
     ba4:	9b02      	ldr	r3, [sp, #8]
     ba6:	2b13      	cmp	r3, #19
     ba8:	dcd6      	bgt.n	b58 <errorFlag_clearrr+0x30>
     baa:	e7f8      	b.n	b9e <errorFlag_clearrr+0x76>
     bac:	40008000 	.word	0x40008000
     bb0:	000029c8 	.word	0x000029c8

00000bb4 <spi_init>:
     bb4:	b570      	push	{r4, r5, r6, lr}
     bb6:	4604      	mov	r4, r0
     bb8:	b084      	sub	sp, #16
     bba:	481d      	ldr	r0, [pc, #116]	; (c30 <spi_init+0x7c>)
     bbc:	460e      	mov	r6, r1
     bbe:	f000 ff2f 	bl	1a20 <SysCtlPeripheralEnable>
     bc2:	481c      	ldr	r0, [pc, #112]	; (c34 <spi_init+0x80>)
     bc4:	f000 ff2c 	bl	1a20 <SysCtlPeripheralEnable>
     bc8:	f640 000f 	movw	r0, #2063	; 0x80f
     bcc:	f000 fbda 	bl	1384 <GPIOPinConfigure>
     bd0:	f241 000f 	movw	r0, #4111	; 0x100f
     bd4:	f000 fbd6 	bl	1384 <GPIOPinConfigure>
     bd8:	f241 400f 	movw	r0, #5135	; 0x140f
     bdc:	f000 fbd2 	bl	1384 <GPIOPinConfigure>
     be0:	f001 fa5e 	bl	20a0 <SysCtlClockGet>
     be4:	4a14      	ldr	r2, [pc, #80]	; (c38 <spi_init+0x84>)
     be6:	2310      	movs	r3, #16
     be8:	4601      	mov	r1, r0
     bea:	e88d 000c 	stmia.w	sp, {r2, r3}
     bee:	4813      	ldr	r0, [pc, #76]	; (c3c <spi_init+0x88>)
     bf0:	2202      	movs	r2, #2
     bf2:	2300      	movs	r3, #0
     bf4:	f000 fd82 	bl	16fc <SSIConfigSetExpClk>
     bf8:	4810      	ldr	r0, [pc, #64]	; (c3c <spi_init+0x88>)
     bfa:	f000 fda4 	bl	1746 <SSIEnable>
     bfe:	f04f 2040 	mov.w	r0, #1073758208	; 0x40004000
     c02:	2134      	movs	r1, #52	; 0x34
     c04:	f000 fb1f 	bl	1246 <GPIOPinTypeSSI>
     c08:	b156      	cbz	r6, c20 <spi_init+0x6c>
     c0a:	2500      	movs	r5, #0
     c0c:	69e0      	ldr	r0, [r4, #28]
     c0e:	f894 1020 	ldrb.w	r1, [r4, #32]
     c12:	3501      	adds	r5, #1
     c14:	f000 fa8b 	bl	112e <GPIOPinTypeGPIOOutput>
     c18:	42b5      	cmp	r5, r6
     c1a:	f104 043c 	add.w	r4, r4, #60	; 0x3c
     c1e:	d1f5      	bne.n	c0c <spi_init+0x58>
     c20:	4806      	ldr	r0, [pc, #24]	; (c3c <spi_init+0x88>)
     c22:	a903      	add	r1, sp, #12
     c24:	f000 fdd7 	bl	17d6 <SSIDataGetNonBlocking>
     c28:	2800      	cmp	r0, #0
     c2a:	d1f9      	bne.n	c20 <spi_init+0x6c>
     c2c:	b004      	add	sp, #16
     c2e:	bd70      	pop	{r4, r5, r6, pc}
     c30:	f0001c00 	.word	0xf0001c00
     c34:	f0000800 	.word	0xf0000800
     c38:	000493e0 	.word	0x000493e0
     c3c:	40008000 	.word	0x40008000

00000c40 <spi_open>:
     c40:	b2c9      	uxtb	r1, r1
     c42:	43ca      	mvns	r2, r1
     c44:	b2d2      	uxtb	r2, r2
     c46:	f000 ba0d 	b.w	1064 <GPIOPinWrite>
     c4a:	bf00      	nop

00000c4c <spi_close>:
     c4c:	b2c9      	uxtb	r1, r1
     c4e:	460a      	mov	r2, r1
     c50:	f000 ba08 	b.w	1064 <GPIOPinWrite>

00000c54 <spi_write16>:
     c54:	b570      	push	{r4, r5, r6, lr}
     c56:	460e      	mov	r6, r1
     c58:	b149      	cbz	r1, c6e <spi_write16+0x1a>
     c5a:	1e85      	subs	r5, r0, #2
     c5c:	2400      	movs	r4, #0
     c5e:	3401      	adds	r4, #1
     c60:	4806      	ldr	r0, [pc, #24]	; (c7c <spi_write16+0x28>)
     c62:	f835 1f02 	ldrh.w	r1, [r5, #2]!
     c66:	f000 fda0 	bl	17aa <SSIDataPut>
     c6a:	42b4      	cmp	r4, r6
     c6c:	d1f7      	bne.n	c5e <spi_write16+0xa>
     c6e:	4803      	ldr	r0, [pc, #12]	; (c7c <spi_write16+0x28>)
     c70:	f000 fdc4 	bl	17fc <SSIBusy>
     c74:	2800      	cmp	r0, #0
     c76:	d1fa      	bne.n	c6e <spi_write16+0x1a>
     c78:	bd70      	pop	{r4, r5, r6, pc}
     c7a:	bf00      	nop
     c7c:	40008000 	.word	0x40008000

00000c80 <spi_read>:
     c80:	b570      	push	{r4, r5, r6, lr}
     c82:	b082      	sub	sp, #8
     c84:	2300      	movs	r3, #0
     c86:	460e      	mov	r6, r1
     c88:	9301      	str	r3, [sp, #4]
     c8a:	b151      	cbz	r1, ca2 <spi_read+0x22>
     c8c:	4604      	mov	r4, r0
     c8e:	1845      	adds	r5, r0, r1
     c90:	4808      	ldr	r0, [pc, #32]	; (cb4 <spi_read+0x34>)
     c92:	a901      	add	r1, sp, #4
     c94:	f000 fd98 	bl	17c8 <SSIDataGet>
     c98:	9b01      	ldr	r3, [sp, #4]
     c9a:	f804 3b01 	strb.w	r3, [r4], #1
     c9e:	42ac      	cmp	r4, r5
     ca0:	d1f6      	bne.n	c90 <spi_read+0x10>
     ca2:	4804      	ldr	r0, [pc, #16]	; (cb4 <spi_read+0x34>)
     ca4:	f000 fdaa 	bl	17fc <SSIBusy>
     ca8:	2800      	cmp	r0, #0
     caa:	d1fa      	bne.n	ca2 <spi_read+0x22>
     cac:	4630      	mov	r0, r6
     cae:	b002      	add	sp, #8
     cb0:	bd70      	pop	{r4, r5, r6, pc}
     cb2:	bf00      	nop
     cb4:	40008000 	.word	0x40008000

00000cb8 <_GPIOIntNumberGet>:
     cb8:	4b0c      	ldr	r3, [pc, #48]	; (cec <_GPIOIntNumberGet+0x34>)
     cba:	490d      	ldr	r1, [pc, #52]	; (cf0 <_GPIOIntNumberGet+0x38>)
     cbc:	681a      	ldr	r2, [r3, #0]
     cbe:	4b0d      	ldr	r3, [pc, #52]	; (cf4 <_GPIOIntNumberGet+0x3c>)
     cc0:	b510      	push	{r4, lr}
     cc2:	ea02 0303 	and.w	r3, r2, r3
     cc6:	4c0c      	ldr	r4, [pc, #48]	; (cf8 <_GPIOIntNumberGet+0x40>)
     cc8:	4a0c      	ldr	r2, [pc, #48]	; (cfc <_GPIOIntNumberGet+0x44>)
     cca:	42a3      	cmp	r3, r4
     ccc:	bf18      	it	ne
     cce:	460a      	movne	r2, r1
     cd0:	2300      	movs	r3, #0
     cd2:	58d4      	ldr	r4, [r2, r3]
     cd4:	4284      	cmp	r4, r0
     cd6:	eb02 0103 	add.w	r1, r2, r3
     cda:	d101      	bne.n	ce0 <_GPIOIntNumberGet+0x28>
     cdc:	6848      	ldr	r0, [r1, #4]
     cde:	bd10      	pop	{r4, pc}
     ce0:	3308      	adds	r3, #8
     ce2:	2bc0      	cmp	r3, #192	; 0xc0
     ce4:	d1f5      	bne.n	cd2 <_GPIOIntNumberGet+0x1a>
     ce6:	2000      	movs	r0, #0
     ce8:	bd10      	pop	{r4, pc}
     cea:	bf00      	nop
     cec:	400fe000 	.word	0x400fe000
     cf0:	00002b20 	.word	0x00002b20
     cf4:	70ff0000 	.word	0x70ff0000
     cf8:	100a0000 	.word	0x100a0000
     cfc:	000029d0 	.word	0x000029d0

00000d00 <GPIODirModeSet>:
     d00:	f8d0 3400 	ldr.w	r3, [r0, #1024]	; 0x400
     d04:	f012 0f01 	tst.w	r2, #1
     d08:	b510      	push	{r4, lr}
     d0a:	f500 6480 	add.w	r4, r0, #1024	; 0x400
     d0e:	bf14      	ite	ne
     d10:	430b      	orrne	r3, r1
     d12:	438b      	biceq	r3, r1
     d14:	6023      	str	r3, [r4, #0]
     d16:	f012 0f02 	tst.w	r2, #2
     d1a:	f8d0 2420 	ldr.w	r2, [r0, #1056]	; 0x420
     d1e:	f500 6384 	add.w	r3, r0, #1056	; 0x420
     d22:	bf14      	ite	ne
     d24:	4311      	orrne	r1, r2
     d26:	ea22 0101 	biceq.w	r1, r2, r1
     d2a:	6019      	str	r1, [r3, #0]
     d2c:	bd10      	pop	{r4, pc}

00000d2e <GPIODirModeGet>:
     d2e:	2301      	movs	r3, #1
     d30:	408b      	lsls	r3, r1
     d32:	b510      	push	{r4, lr}
     d34:	f8d0 4400 	ldr.w	r4, [r0, #1024]	; 0x400
     d38:	f8d0 2420 	ldr.w	r2, [r0, #1056]	; 0x420
     d3c:	b2db      	uxtb	r3, r3
     d3e:	4223      	tst	r3, r4
     d40:	bf0c      	ite	eq
     d42:	2100      	moveq	r1, #0
     d44:	2101      	movne	r1, #1
     d46:	4013      	ands	r3, r2
     d48:	bf0c      	ite	eq
     d4a:	4618      	moveq	r0, r3
     d4c:	2002      	movne	r0, #2
     d4e:	4308      	orrs	r0, r1
     d50:	bd10      	pop	{r4, pc}

00000d52 <GPIOIntTypeSet>:
     d52:	f8d0 3408 	ldr.w	r3, [r0, #1032]	; 0x408
     d56:	b510      	push	{r4, lr}
     d58:	f012 0f01 	tst.w	r2, #1
     d5c:	f500 6481 	add.w	r4, r0, #1032	; 0x408
     d60:	bf14      	ite	ne
     d62:	430b      	orrne	r3, r1
     d64:	438b      	biceq	r3, r1
     d66:	6023      	str	r3, [r4, #0]
     d68:	f8d0 4404 	ldr.w	r4, [r0, #1028]	; 0x404
     d6c:	f500 6380 	add.w	r3, r0, #1024	; 0x400
     d70:	f012 0f02 	tst.w	r2, #2
     d74:	f103 0304 	add.w	r3, r3, #4
     d78:	bf14      	ite	ne
     d7a:	430c      	orrne	r4, r1
     d7c:	438c      	biceq	r4, r1
     d7e:	601c      	str	r4, [r3, #0]
     d80:	f8d0 440c 	ldr.w	r4, [r0, #1036]	; 0x40c
     d84:	f500 6380 	add.w	r3, r0, #1024	; 0x400
     d88:	f012 0f04 	tst.w	r2, #4
     d8c:	f103 030c 	add.w	r3, r3, #12
     d90:	bf14      	ite	ne
     d92:	4321      	orrne	r1, r4
     d94:	ea24 0101 	biceq.w	r1, r4, r1
     d98:	6019      	str	r1, [r3, #0]
     d9a:	f8d0 3538 	ldr.w	r3, [r0, #1336]	; 0x538
     d9e:	f412 3f80 	tst.w	r2, #65536	; 0x10000
     da2:	f500 62a7 	add.w	r2, r0, #1336	; 0x538
     da6:	bf14      	ite	ne
     da8:	f043 0301 	orrne.w	r3, r3, #1
     dac:	f023 0301 	biceq.w	r3, r3, #1
     db0:	6013      	str	r3, [r2, #0]
     db2:	bd10      	pop	{r4, pc}

00000db4 <GPIOIntTypeGet>:
     db4:	2301      	movs	r3, #1
     db6:	b570      	push	{r4, r5, r6, lr}
     db8:	408b      	lsls	r3, r1
     dba:	f8d0 6408 	ldr.w	r6, [r0, #1032]	; 0x408
     dbe:	f8d0 5404 	ldr.w	r5, [r0, #1028]	; 0x404
     dc2:	f8d0 440c 	ldr.w	r4, [r0, #1036]	; 0x40c
     dc6:	f8d0 2538 	ldr.w	r2, [r0, #1336]	; 0x538
     dca:	b2db      	uxtb	r3, r3
     dcc:	4233      	tst	r3, r6
     dce:	bf0c      	ite	eq
     dd0:	2100      	moveq	r1, #0
     dd2:	2101      	movne	r1, #1
     dd4:	401d      	ands	r5, r3
     dd6:	bf18      	it	ne
     dd8:	2502      	movne	r5, #2
     dda:	401c      	ands	r4, r3
     ddc:	bf18      	it	ne
     dde:	2404      	movne	r4, #4
     de0:	430d      	orrs	r5, r1
     de2:	ea45 0304 	orr.w	r3, r5, r4
     de6:	f002 0201 	and.w	r2, r2, #1
     dea:	431a      	orrs	r2, r3
     dec:	bf0c      	ite	eq
     dee:	4610      	moveq	r0, r2
     df0:	f44f 3080 	movne.w	r0, #65536	; 0x10000
     df4:	bd70      	pop	{r4, r5, r6, pc}

00000df6 <GPIOPadConfigSet>:
     df6:	b5f0      	push	{r4, r5, r6, r7, lr}
     df8:	0956      	lsrs	r6, r2, #5
     dfa:	f006 0603 	and.w	r6, r6, #3
     dfe:	2400      	movs	r4, #0
     e00:	fa51 f504 	asrs.w	r5, r1, r4
     e04:	f015 0f01 	tst.w	r5, #1
     e08:	d011      	beq.n	e2e <GPIOPadConfigSet+0x38>
     e0a:	f8d0 7fc4 	ldr.w	r7, [r0, #4036]	; 0xfc4
     e0e:	0065      	lsls	r5, r4, #1
     e10:	f04f 0c03 	mov.w	ip, #3
     e14:	fa0c fc05 	lsl.w	ip, ip, r5
     e18:	ea27 070c 	bic.w	r7, r7, ip
     e1c:	f8c0 7fc4 	str.w	r7, [r0, #4036]	; 0xfc4
     e20:	f8d0 7fc4 	ldr.w	r7, [r0, #4036]	; 0xfc4
     e24:	fa16 f505 	lsls.w	r5, r6, r5
     e28:	433d      	orrs	r5, r7
     e2a:	f8c0 5fc4 	str.w	r5, [r0, #4036]	; 0xfc4
     e2e:	3401      	adds	r4, #1
     e30:	2c08      	cmp	r4, #8
     e32:	d1e5      	bne.n	e00 <GPIOPadConfigSet+0xa>
     e34:	f8d0 4500 	ldr.w	r4, [r0, #1280]	; 0x500
     e38:	f012 0f01 	tst.w	r2, #1
     e3c:	f500 65a0 	add.w	r5, r0, #1280	; 0x500
     e40:	bf14      	ite	ne
     e42:	430c      	orrne	r4, r1
     e44:	438c      	biceq	r4, r1
     e46:	602c      	str	r4, [r5, #0]
     e48:	f8d0 5504 	ldr.w	r5, [r0, #1284]	; 0x504
     e4c:	f500 64a0 	add.w	r4, r0, #1280	; 0x500
     e50:	f012 0f02 	tst.w	r2, #2
     e54:	f104 0404 	add.w	r4, r4, #4
     e58:	bf14      	ite	ne
     e5a:	430d      	orrne	r5, r1
     e5c:	438d      	biceq	r5, r1
     e5e:	6025      	str	r5, [r4, #0]
     e60:	f8d0 4508 	ldr.w	r4, [r0, #1288]	; 0x508
     e64:	f012 0f04 	tst.w	r2, #4
     e68:	f500 65a1 	add.w	r5, r0, #1288	; 0x508
     e6c:	bf14      	ite	ne
     e6e:	430c      	orrne	r4, r1
     e70:	438c      	biceq	r4, r1
     e72:	602c      	str	r4, [r5, #0]
     e74:	f8d0 4518 	ldr.w	r4, [r0, #1304]	; 0x518
     e78:	f012 0f08 	tst.w	r2, #8
     e7c:	f500 65a3 	add.w	r5, r0, #1304	; 0x518
     e80:	bf14      	ite	ne
     e82:	430c      	orrne	r4, r1
     e84:	438c      	biceq	r4, r1
     e86:	602c      	str	r4, [r5, #0]
     e88:	f8d0 453c 	ldr.w	r4, [r0, #1340]	; 0x53c
     e8c:	f012 0f10 	tst.w	r2, #16
     e90:	f500 62a6 	add.w	r2, r0, #1328	; 0x530
     e94:	f102 020c 	add.w	r2, r2, #12
     e98:	bf14      	ite	ne
     e9a:	430c      	orrne	r4, r1
     e9c:	438c      	biceq	r4, r1
     e9e:	6014      	str	r4, [r2, #0]
     ea0:	f8d0 450c 	ldr.w	r4, [r0, #1292]	; 0x50c
     ea4:	f500 62a0 	add.w	r2, r0, #1280	; 0x500
     ea8:	f013 0f01 	tst.w	r3, #1
     eac:	f102 020c 	add.w	r2, r2, #12
     eb0:	bf14      	ite	ne
     eb2:	430c      	orrne	r4, r1
     eb4:	438c      	biceq	r4, r1
     eb6:	6014      	str	r4, [r2, #0]
     eb8:	f8d0 2510 	ldr.w	r2, [r0, #1296]	; 0x510
     ebc:	f013 0f02 	tst.w	r3, #2
     ec0:	f500 64a2 	add.w	r4, r0, #1296	; 0x510
     ec4:	bf14      	ite	ne
     ec6:	430a      	orrne	r2, r1
     ec8:	438a      	biceq	r2, r1
     eca:	6022      	str	r2, [r4, #0]
     ecc:	f8d0 4514 	ldr.w	r4, [r0, #1300]	; 0x514
     ed0:	f500 62a2 	add.w	r2, r0, #1296	; 0x510
     ed4:	f013 0f04 	tst.w	r3, #4
     ed8:	f102 0204 	add.w	r2, r2, #4
     edc:	bf14      	ite	ne
     ede:	430c      	orrne	r4, r1
     ee0:	438c      	biceq	r4, r1
     ee2:	6014      	str	r4, [r2, #0]
     ee4:	f8d0 451c 	ldr.w	r4, [r0, #1308]	; 0x51c
     ee8:	f500 62a2 	add.w	r2, r0, #1296	; 0x510
     eec:	f013 0f08 	tst.w	r3, #8
     ef0:	f102 020c 	add.w	r2, r2, #12
     ef4:	bf14      	ite	ne
     ef6:	430c      	orrne	r4, r1
     ef8:	438c      	biceq	r4, r1
     efa:	6014      	str	r4, [r2, #0]
     efc:	f8d0 4544 	ldr.w	r4, [r0, #1348]	; 0x544
     f00:	f500 62a8 	add.w	r2, r0, #1344	; 0x540
     f04:	f413 7f00 	tst.w	r3, #512	; 0x200
     f08:	f102 0204 	add.w	r2, r2, #4
     f0c:	bf14      	ite	ne
     f0e:	430c      	orrne	r4, r1
     f10:	438c      	biceq	r4, r1
     f12:	6014      	str	r4, [r2, #0]
     f14:	f8d0 2540 	ldr.w	r2, [r0, #1344]	; 0x540
     f18:	f413 7f40 	tst.w	r3, #768	; 0x300
     f1c:	f500 64a8 	add.w	r4, r0, #1344	; 0x540
     f20:	bf14      	ite	ne
     f22:	430a      	orrne	r2, r1
     f24:	438a      	biceq	r2, r1
     f26:	6022      	str	r2, [r4, #0]
     f28:	f500 62a5 	add.w	r2, r0, #1320	; 0x528
     f2c:	b923      	cbnz	r3, f38 <GPIOPadConfigSet+0x142>
     f2e:	f8d0 3528 	ldr.w	r3, [r0, #1320]	; 0x528
     f32:	ea43 0101 	orr.w	r1, r3, r1
     f36:	e003      	b.n	f40 <GPIOPadConfigSet+0x14a>
     f38:	f8d0 3528 	ldr.w	r3, [r0, #1320]	; 0x528
     f3c:	ea23 0101 	bic.w	r1, r3, r1
     f40:	6011      	str	r1, [r2, #0]
     f42:	bdf0      	pop	{r4, r5, r6, r7, pc}

00000f44 <GPIOPadConfigGet>:
     f44:	e92d 43f0 	stmdb	sp!, {r4, r5, r6, r7, r8, r9, lr}
     f48:	2401      	movs	r4, #1
     f4a:	408c      	lsls	r4, r1
     f4c:	f8d0 1500 	ldr.w	r1, [r0, #1280]	; 0x500
     f50:	b2e4      	uxtb	r4, r4
     f52:	420c      	tst	r4, r1
     f54:	f8d0 1504 	ldr.w	r1, [r0, #1284]	; 0x504
     f58:	bf0c      	ite	eq
     f5a:	2700      	moveq	r7, #0
     f5c:	2701      	movne	r7, #1
     f5e:	4021      	ands	r1, r4
     f60:	bf0c      	ite	eq
     f62:	468c      	moveq	ip, r1
     f64:	f04f 0c02 	movne.w	ip, #2
     f68:	f8d0 1508 	ldr.w	r1, [r0, #1288]	; 0x508
     f6c:	4021      	ands	r1, r4
     f6e:	bf0c      	ite	eq
     f70:	4688      	moveq	r8, r1
     f72:	f04f 0804 	movne.w	r8, #4
     f76:	f8d0 1518 	ldr.w	r1, [r0, #1304]	; 0x518
     f7a:	4021      	ands	r1, r4
     f7c:	bf0c      	ite	eq
     f7e:	460e      	moveq	r6, r1
     f80:	2608      	movne	r6, #8
     f82:	f8d0 153c 	ldr.w	r1, [r0, #1340]	; 0x53c
     f86:	f8d0 9fc4 	ldr.w	r9, [r0, #4036]	; 0xfc4
     f8a:	4021      	ands	r1, r4
     f8c:	bf0c      	ite	eq
     f8e:	460d      	moveq	r5, r1
     f90:	2510      	movne	r5, #16
     f92:	0061      	lsls	r1, r4, #1
     f94:	fa29 f101 	lsr.w	r1, r9, r1
     f98:	f001 0103 	and.w	r1, r1, #3
     f9c:	ea47 1141 	orr.w	r1, r7, r1, lsl #5
     fa0:	ea41 010c 	orr.w	r1, r1, ip
     fa4:	ea41 0108 	orr.w	r1, r1, r8
     fa8:	4331      	orrs	r1, r6
     faa:	4329      	orrs	r1, r5
     fac:	6011      	str	r1, [r2, #0]
     fae:	f8d0 250c 	ldr.w	r2, [r0, #1292]	; 0x50c
     fb2:	f8d0 1510 	ldr.w	r1, [r0, #1296]	; 0x510
     fb6:	4214      	tst	r4, r2
     fb8:	bf0c      	ite	eq
     fba:	2500      	moveq	r5, #0
     fbc:	2501      	movne	r5, #1
     fbe:	ea14 0201 	ands.w	r2, r4, r1
     fc2:	f8d0 1514 	ldr.w	r1, [r0, #1300]	; 0x514
     fc6:	bf18      	it	ne
     fc8:	2202      	movne	r2, #2
     fca:	4021      	ands	r1, r4
     fcc:	bf18      	it	ne
     fce:	2104      	movne	r1, #4
     fd0:	432a      	orrs	r2, r5
     fd2:	430a      	orrs	r2, r1
     fd4:	f8d0 151c 	ldr.w	r1, [r0, #1308]	; 0x51c
     fd8:	4021      	ands	r1, r4
     fda:	bf18      	it	ne
     fdc:	2108      	movne	r1, #8
     fde:	430a      	orrs	r2, r1
     fe0:	f8d0 1540 	ldr.w	r1, [r0, #1344]	; 0x540
     fe4:	420c      	tst	r4, r1
     fe6:	d008      	beq.n	ffa <GPIOPadConfigGet+0xb6>
     fe8:	f8d0 1544 	ldr.w	r1, [r0, #1348]	; 0x544
     fec:	420c      	tst	r4, r1
     fee:	bf0c      	ite	eq
     ff0:	f44f 7180 	moveq.w	r1, #256	; 0x100
     ff4:	f44f 7100 	movne.w	r1, #512	; 0x200
     ff8:	430a      	orrs	r2, r1
     ffa:	601a      	str	r2, [r3, #0]
     ffc:	e8bd 83f0 	ldmia.w	sp!, {r4, r5, r6, r7, r8, r9, pc}

00001000 <GPIOIntEnable>:
    1000:	f8d0 3410 	ldr.w	r3, [r0, #1040]	; 0x410
    1004:	430b      	orrs	r3, r1
    1006:	f8c0 3410 	str.w	r3, [r0, #1040]	; 0x410
    100a:	4770      	bx	lr

0000100c <GPIOIntDisable>:
    100c:	f8d0 3410 	ldr.w	r3, [r0, #1040]	; 0x410
    1010:	ea23 0301 	bic.w	r3, r3, r1
    1014:	f8c0 3410 	str.w	r3, [r0, #1040]	; 0x410
    1018:	4770      	bx	lr

0000101a <GPIOIntStatus>:
    101a:	b111      	cbz	r1, 1022 <GPIOIntStatus+0x8>
    101c:	f8d0 0418 	ldr.w	r0, [r0, #1048]	; 0x418
    1020:	4770      	bx	lr
    1022:	f8d0 0414 	ldr.w	r0, [r0, #1044]	; 0x414
    1026:	4770      	bx	lr

00001028 <GPIOIntClear>:
    1028:	f8c0 141c 	str.w	r1, [r0, #1052]	; 0x41c
    102c:	4770      	bx	lr

0000102e <GPIOIntRegister>:
    102e:	b570      	push	{r4, r5, r6, lr}
    1030:	460d      	mov	r5, r1
    1032:	f7ff fe41 	bl	cb8 <_GPIOIntNumberGet>
    1036:	4629      	mov	r1, r5
    1038:	4604      	mov	r4, r0
    103a:	f000 f9f3 	bl	1424 <IntRegister>
    103e:	4620      	mov	r0, r4
    1040:	e8bd 4070 	ldmia.w	sp!, {r4, r5, r6, lr}
    1044:	f000 ba52 	b.w	14ec <IntEnable>

00001048 <GPIOIntUnregister>:
    1048:	b510      	push	{r4, lr}
    104a:	f7ff fe35 	bl	cb8 <_GPIOIntNumberGet>
    104e:	4604      	mov	r4, r0
    1050:	f000 fa7c 	bl	154c <IntDisable>
    1054:	4620      	mov	r0, r4
    1056:	e8bd 4010 	ldmia.w	sp!, {r4, lr}
    105a:	f000 b9fb 	b.w	1454 <IntUnregister>

0000105e <GPIOPinRead>:
    105e:	f850 0021 	ldr.w	r0, [r0, r1, lsl #2]
    1062:	4770      	bx	lr

00001064 <GPIOPinWrite>:
    1064:	f840 2021 	str.w	r2, [r0, r1, lsl #2]
    1068:	4770      	bx	lr

0000106a <GPIOPinTypeADC>:
    106a:	b570      	push	{r4, r5, r6, lr}
    106c:	2200      	movs	r2, #0
    106e:	4605      	mov	r5, r0
    1070:	460c      	mov	r4, r1
    1072:	f7ff fe45 	bl	d00 <GPIODirModeSet>
    1076:	4628      	mov	r0, r5
    1078:	4621      	mov	r1, r4
    107a:	2201      	movs	r2, #1
    107c:	2300      	movs	r3, #0
    107e:	e8bd 4070 	ldmia.w	sp!, {r4, r5, r6, lr}
    1082:	f7ff beb8 	b.w	df6 <GPIOPadConfigSet>

00001086 <GPIOPinTypeCAN>:
    1086:	b570      	push	{r4, r5, r6, lr}
    1088:	2202      	movs	r2, #2
    108a:	4605      	mov	r5, r0
    108c:	460c      	mov	r4, r1
    108e:	f7ff fe37 	bl	d00 <GPIODirModeSet>
    1092:	4628      	mov	r0, r5
    1094:	4621      	mov	r1, r4
    1096:	2266      	movs	r2, #102	; 0x66
    1098:	2308      	movs	r3, #8
    109a:	e8bd 4070 	ldmia.w	sp!, {r4, r5, r6, lr}
    109e:	f7ff beaa 	b.w	df6 <GPIOPadConfigSet>

000010a2 <GPIOPinTypeComparator>:
    10a2:	b570      	push	{r4, r5, r6, lr}
    10a4:	2200      	movs	r2, #0
    10a6:	4605      	mov	r5, r0
    10a8:	460c      	mov	r4, r1
    10aa:	f7ff fe29 	bl	d00 <GPIODirModeSet>
    10ae:	4628      	mov	r0, r5
    10b0:	4621      	mov	r1, r4
    10b2:	2201      	movs	r2, #1
    10b4:	2300      	movs	r3, #0
    10b6:	e8bd 4070 	ldmia.w	sp!, {r4, r5, r6, lr}
    10ba:	f7ff be9c 	b.w	df6 <GPIOPadConfigSet>

000010be <GPIOPinTypeEPI>:
    10be:	b570      	push	{r4, r5, r6, lr}
    10c0:	2202      	movs	r2, #2
    10c2:	4605      	mov	r5, r0
    10c4:	460c      	mov	r4, r1
    10c6:	f7ff fe1b 	bl	d00 <GPIODirModeSet>
    10ca:	4628      	mov	r0, r5
    10cc:	4621      	mov	r1, r4
    10ce:	2266      	movs	r2, #102	; 0x66
    10d0:	2308      	movs	r3, #8
    10d2:	e8bd 4070 	ldmia.w	sp!, {r4, r5, r6, lr}
    10d6:	f7ff be8e 	b.w	df6 <GPIOPadConfigSet>

000010da <GPIOPinTypeEthernetLED>:
    10da:	b570      	push	{r4, r5, r6, lr}
    10dc:	2202      	movs	r2, #2
    10de:	4605      	mov	r5, r0
    10e0:	460c      	mov	r4, r1
    10e2:	f7ff fe0d 	bl	d00 <GPIODirModeSet>
    10e6:	4628      	mov	r0, r5
    10e8:	4621      	mov	r1, r4
    10ea:	2266      	movs	r2, #102	; 0x66
    10ec:	2308      	movs	r3, #8
    10ee:	e8bd 4070 	ldmia.w	sp!, {r4, r5, r6, lr}
    10f2:	f7ff be80 	b.w	df6 <GPIOPadConfigSet>

000010f6 <GPIOPinTypeEthernetMII>:
    10f6:	b570      	push	{r4, r5, r6, lr}
    10f8:	2202      	movs	r2, #2
    10fa:	4605      	mov	r5, r0
    10fc:	460c      	mov	r4, r1
    10fe:	f7ff fdff 	bl	d00 <GPIODirModeSet>
    1102:	4628      	mov	r0, r5
    1104:	4621      	mov	r1, r4
    1106:	2266      	movs	r2, #102	; 0x66
    1108:	2308      	movs	r3, #8
    110a:	e8bd 4070 	ldmia.w	sp!, {r4, r5, r6, lr}
    110e:	f7ff be72 	b.w	df6 <GPIOPadConfigSet>

00001112 <GPIOPinTypeGPIOInput>:
    1112:	b570      	push	{r4, r5, r6, lr}
    1114:	2200      	movs	r2, #0
    1116:	4605      	mov	r5, r0
    1118:	460c      	mov	r4, r1
    111a:	f7ff fdf1 	bl	d00 <GPIODirModeSet>
    111e:	4628      	mov	r0, r5
    1120:	4621      	mov	r1, r4
    1122:	2201      	movs	r2, #1
    1124:	2308      	movs	r3, #8
    1126:	e8bd 4070 	ldmia.w	sp!, {r4, r5, r6, lr}
    112a:	f7ff be64 	b.w	df6 <GPIOPadConfigSet>

0000112e <GPIOPinTypeGPIOOutput>:
    112e:	b570      	push	{r4, r5, r6, lr}
    1130:	2201      	movs	r2, #1
    1132:	2308      	movs	r3, #8
    1134:	4605      	mov	r5, r0
    1136:	460c      	mov	r4, r1
    1138:	f7ff fe5d 	bl	df6 <GPIOPadConfigSet>
    113c:	4628      	mov	r0, r5
    113e:	4621      	mov	r1, r4
    1140:	2201      	movs	r2, #1
    1142:	e8bd 4070 	ldmia.w	sp!, {r4, r5, r6, lr}
    1146:	f7ff bddb 	b.w	d00 <GPIODirModeSet>

0000114a <GPIOPinTypeGPIOOutputOD>:
    114a:	b570      	push	{r4, r5, r6, lr}
    114c:	2201      	movs	r2, #1
    114e:	2309      	movs	r3, #9
    1150:	4605      	mov	r5, r0
    1152:	460c      	mov	r4, r1
    1154:	f7ff fe4f 	bl	df6 <GPIOPadConfigSet>
    1158:	4628      	mov	r0, r5
    115a:	4621      	mov	r1, r4
    115c:	2201      	movs	r2, #1
    115e:	e8bd 4070 	ldmia.w	sp!, {r4, r5, r6, lr}
    1162:	f7ff bdcd 	b.w	d00 <GPIODirModeSet>

00001166 <GPIOPinTypeI2C>:
    1166:	b570      	push	{r4, r5, r6, lr}
    1168:	2202      	movs	r2, #2
    116a:	4605      	mov	r5, r0
    116c:	460c      	mov	r4, r1
    116e:	f7ff fdc7 	bl	d00 <GPIODirModeSet>
    1172:	4628      	mov	r0, r5
    1174:	4621      	mov	r1, r4
    1176:	2201      	movs	r2, #1
    1178:	2309      	movs	r3, #9
    117a:	e8bd 4070 	ldmia.w	sp!, {r4, r5, r6, lr}
    117e:	f7ff be3a 	b.w	df6 <GPIOPadConfigSet>

00001182 <GPIOPinTypeI2CSCL>:
    1182:	b570      	push	{r4, r5, r6, lr}
    1184:	2202      	movs	r2, #2
    1186:	4605      	mov	r5, r0
    1188:	460c      	mov	r4, r1
    118a:	f7ff fdb9 	bl	d00 <GPIODirModeSet>
    118e:	4628      	mov	r0, r5
    1190:	4621      	mov	r1, r4
    1192:	2201      	movs	r2, #1
    1194:	2308      	movs	r3, #8
    1196:	e8bd 4070 	ldmia.w	sp!, {r4, r5, r6, lr}
    119a:	f7ff be2c 	b.w	df6 <GPIOPadConfigSet>

0000119e <GPIOPinTypeLCD>:
    119e:	b570      	push	{r4, r5, r6, lr}
    11a0:	2202      	movs	r2, #2
    11a2:	4605      	mov	r5, r0
    11a4:	460c      	mov	r4, r1
    11a6:	f7ff fdab 	bl	d00 <GPIODirModeSet>
    11aa:	4628      	mov	r0, r5
    11ac:	4621      	mov	r1, r4
    11ae:	2266      	movs	r2, #102	; 0x66
    11b0:	2308      	movs	r3, #8
    11b2:	e8bd 4070 	ldmia.w	sp!, {r4, r5, r6, lr}
    11b6:	f7ff be1e 	b.w	df6 <GPIOPadConfigSet>

000011ba <GPIOPinTypeLPC>:
    11ba:	b570      	push	{r4, r5, r6, lr}
    11bc:	2202      	movs	r2, #2
    11be:	4605      	mov	r5, r0
    11c0:	460c      	mov	r4, r1
    11c2:	f7ff fd9d 	bl	d00 <GPIODirModeSet>
    11c6:	4628      	mov	r0, r5
    11c8:	4621      	mov	r1, r4
    11ca:	2266      	movs	r2, #102	; 0x66
    11cc:	2308      	movs	r3, #8
    11ce:	e8bd 4070 	ldmia.w	sp!, {r4, r5, r6, lr}
    11d2:	f7ff be10 	b.w	df6 <GPIOPadConfigSet>

000011d6 <GPIOPinTypePECIRx>:
    11d6:	b570      	push	{r4, r5, r6, lr}
    11d8:	2200      	movs	r2, #0
    11da:	4605      	mov	r5, r0
    11dc:	460c      	mov	r4, r1
    11de:	f7ff fd8f 	bl	d00 <GPIODirModeSet>
    11e2:	4628      	mov	r0, r5
    11e4:	4621      	mov	r1, r4
    11e6:	2201      	movs	r2, #1
    11e8:	2300      	movs	r3, #0
    11ea:	e8bd 4070 	ldmia.w	sp!, {r4, r5, r6, lr}
    11ee:	f7ff be02 	b.w	df6 <GPIOPadConfigSet>

000011f2 <GPIOPinTypePECITx>:
    11f2:	b570      	push	{r4, r5, r6, lr}
    11f4:	2202      	movs	r2, #2
    11f6:	4605      	mov	r5, r0
    11f8:	460c      	mov	r4, r1
    11fa:	f7ff fd81 	bl	d00 <GPIODirModeSet>
    11fe:	4628      	mov	r0, r5
    1200:	4621      	mov	r1, r4
    1202:	2201      	movs	r2, #1
    1204:	2308      	movs	r3, #8
    1206:	e8bd 4070 	ldmia.w	sp!, {r4, r5, r6, lr}
    120a:	f7ff bdf4 	b.w	df6 <GPIOPadConfigSet>

0000120e <GPIOPinTypePWM>:
    120e:	b570      	push	{r4, r5, r6, lr}
    1210:	2202      	movs	r2, #2
    1212:	4605      	mov	r5, r0
    1214:	460c      	mov	r4, r1
    1216:	f7ff fd73 	bl	d00 <GPIODirModeSet>
    121a:	4628      	mov	r0, r5
    121c:	4621      	mov	r1, r4
    121e:	2201      	movs	r2, #1
    1220:	2308      	movs	r3, #8
    1222:	e8bd 4070 	ldmia.w	sp!, {r4, r5, r6, lr}
    1226:	f7ff bde6 	b.w	df6 <GPIOPadConfigSet>

0000122a <GPIOPinTypeQEI>:
    122a:	b570      	push	{r4, r5, r6, lr}
    122c:	2202      	movs	r2, #2
    122e:	4605      	mov	r5, r0
    1230:	460c      	mov	r4, r1
    1232:	f7ff fd65 	bl	d00 <GPIODirModeSet>
    1236:	4628      	mov	r0, r5
    1238:	4621      	mov	r1, r4
    123a:	2201      	movs	r2, #1
    123c:	230a      	movs	r3, #10
    123e:	e8bd 4070 	ldmia.w	sp!, {r4, r5, r6, lr}
    1242:	f7ff bdd8 	b.w	df6 <GPIOPadConfigSet>

00001246 <GPIOPinTypeSSI>:
    1246:	b570      	push	{r4, r5, r6, lr}
    1248:	2202      	movs	r2, #2
    124a:	4605      	mov	r5, r0
    124c:	460c      	mov	r4, r1
    124e:	f7ff fd57 	bl	d00 <GPIODirModeSet>
    1252:	4628      	mov	r0, r5
    1254:	4621      	mov	r1, r4
    1256:	2201      	movs	r2, #1
    1258:	2308      	movs	r3, #8
    125a:	e8bd 4070 	ldmia.w	sp!, {r4, r5, r6, lr}
    125e:	f7ff bdca 	b.w	df6 <GPIOPadConfigSet>

00001262 <GPIOPinTypeTimer>:
    1262:	b570      	push	{r4, r5, r6, lr}
    1264:	2202      	movs	r2, #2
    1266:	4605      	mov	r5, r0
    1268:	460c      	mov	r4, r1
    126a:	f7ff fd49 	bl	d00 <GPIODirModeSet>
    126e:	4628      	mov	r0, r5
    1270:	4621      	mov	r1, r4
    1272:	2201      	movs	r2, #1
    1274:	2308      	movs	r3, #8
    1276:	e8bd 4070 	ldmia.w	sp!, {r4, r5, r6, lr}
    127a:	f7ff bdbc 	b.w	df6 <GPIOPadConfigSet>

0000127e <GPIOPinTypeUART>:
    127e:	b570      	push	{r4, r5, r6, lr}
    1280:	2202      	movs	r2, #2
    1282:	4605      	mov	r5, r0
    1284:	460c      	mov	r4, r1
    1286:	f7ff fd3b 	bl	d00 <GPIODirModeSet>
    128a:	4628      	mov	r0, r5
    128c:	4621      	mov	r1, r4
    128e:	2201      	movs	r2, #1
    1290:	2308      	movs	r3, #8
    1292:	e8bd 4070 	ldmia.w	sp!, {r4, r5, r6, lr}
    1296:	f7ff bdae 	b.w	df6 <GPIOPadConfigSet>

0000129a <GPIOPinTypeUSBAnalog>:
    129a:	b570      	push	{r4, r5, r6, lr}
    129c:	2200      	movs	r2, #0
    129e:	4605      	mov	r5, r0
    12a0:	460c      	mov	r4, r1
    12a2:	f7ff fd2d 	bl	d00 <GPIODirModeSet>
    12a6:	4628      	mov	r0, r5
    12a8:	4621      	mov	r1, r4
    12aa:	2201      	movs	r2, #1
    12ac:	2300      	movs	r3, #0
    12ae:	e8bd 4070 	ldmia.w	sp!, {r4, r5, r6, lr}
    12b2:	f7ff bda0 	b.w	df6 <GPIOPadConfigSet>

000012b6 <GPIOPinTypeUSBDigital>:
    12b6:	b570      	push	{r4, r5, r6, lr}
    12b8:	2202      	movs	r2, #2
    12ba:	4605      	mov	r5, r0
    12bc:	460c      	mov	r4, r1
    12be:	f7ff fd1f 	bl	d00 <GPIODirModeSet>
    12c2:	4628      	mov	r0, r5
    12c4:	4621      	mov	r1, r4
    12c6:	2201      	movs	r2, #1
    12c8:	2308      	movs	r3, #8
    12ca:	e8bd 4070 	ldmia.w	sp!, {r4, r5, r6, lr}
    12ce:	f7ff bd92 	b.w	df6 <GPIOPadConfigSet>

000012d2 <GPIOPinTypeWakeHigh>:
    12d2:	b570      	push	{r4, r5, r6, lr}
    12d4:	2200      	movs	r2, #0
    12d6:	4605      	mov	r5, r0
    12d8:	460c      	mov	r4, r1
    12da:	f7ff fd11 	bl	d00 <GPIODirModeSet>
    12de:	4628      	mov	r0, r5
    12e0:	4621      	mov	r1, r4
    12e2:	2201      	movs	r2, #1
    12e4:	f44f 7302 	mov.w	r3, #520	; 0x208
    12e8:	e8bd 4070 	ldmia.w	sp!, {r4, r5, r6, lr}
    12ec:	f7ff bd83 	b.w	df6 <GPIOPadConfigSet>

000012f0 <GPIOPinTypeWakeLow>:
    12f0:	b570      	push	{r4, r5, r6, lr}
    12f2:	2200      	movs	r2, #0
    12f4:	4605      	mov	r5, r0
    12f6:	460c      	mov	r4, r1
    12f8:	f7ff fd02 	bl	d00 <GPIODirModeSet>
    12fc:	4628      	mov	r0, r5
    12fe:	4621      	mov	r1, r4
    1300:	2201      	movs	r2, #1
    1302:	f44f 7384 	mov.w	r3, #264	; 0x108
    1306:	e8bd 4070 	ldmia.w	sp!, {r4, r5, r6, lr}
    130a:	f7ff bd74 	b.w	df6 <GPIOPadConfigSet>

0000130e <GPIOPinTypeKBRow>:
    130e:	b570      	push	{r4, r5, r6, lr}
    1310:	2202      	movs	r2, #2
    1312:	4605      	mov	r5, r0
    1314:	460c      	mov	r4, r1
    1316:	f7ff fcf3 	bl	d00 <GPIODirModeSet>
    131a:	4628      	mov	r0, r5
    131c:	4621      	mov	r1, r4
    131e:	2201      	movs	r2, #1
    1320:	2308      	movs	r3, #8
    1322:	e8bd 4070 	ldmia.w	sp!, {r4, r5, r6, lr}
    1326:	f7ff bd66 	b.w	df6 <GPIOPadConfigSet>

0000132a <GPIOPinTypeKBColumn>:
    132a:	b570      	push	{r4, r5, r6, lr}
    132c:	2202      	movs	r2, #2
    132e:	4605      	mov	r5, r0
    1330:	460c      	mov	r4, r1
    1332:	f7ff fce5 	bl	d00 <GPIODirModeSet>
    1336:	4628      	mov	r0, r5
    1338:	4621      	mov	r1, r4
    133a:	2201      	movs	r2, #1
    133c:	230a      	movs	r3, #10
    133e:	e8bd 4070 	ldmia.w	sp!, {r4, r5, r6, lr}
    1342:	f7ff bd58 	b.w	df6 <GPIOPadConfigSet>

00001346 <GPIOPinTypeLEDSeq>:
    1346:	b570      	push	{r4, r5, r6, lr}
    1348:	2202      	movs	r2, #2
    134a:	4605      	mov	r5, r0
    134c:	460c      	mov	r4, r1
    134e:	f7ff fcd7 	bl	d00 <GPIODirModeSet>
    1352:	4628      	mov	r0, r5
    1354:	4621      	mov	r1, r4
    1356:	2266      	movs	r2, #102	; 0x66
    1358:	2308      	movs	r3, #8
    135a:	e8bd 4070 	ldmia.w	sp!, {r4, r5, r6, lr}
    135e:	f7ff bd4a 	b.w	df6 <GPIOPadConfigSet>

00001362 <GPIOPinTypeCIR>:
    1362:	b570      	push	{r4, r5, r6, lr}
    1364:	2202      	movs	r2, #2
    1366:	4605      	mov	r5, r0
    1368:	460c      	mov	r4, r1
    136a:	f7ff fcc9 	bl	d00 <GPIODirModeSet>
    136e:	4628      	mov	r0, r5
    1370:	4621      	mov	r1, r4
    1372:	2201      	movs	r2, #1
    1374:	2308      	movs	r3, #8
    1376:	e8bd 4070 	ldmia.w	sp!, {r4, r5, r6, lr}
    137a:	f7ff bd3c 	b.w	df6 <GPIOPadConfigSet>

0000137e <GPIOPinWakeStatus>:
    137e:	f500 60a9 	add.w	r0, r0, #1352	; 0x548
    1382:	4770      	bx	lr

00001384 <GPIOPinConfigure>:
    1384:	4b10      	ldr	r3, [pc, #64]	; (13c8 <GPIOPinConfigure+0x44>)
    1386:	0c02      	lsrs	r2, r0, #16
    1388:	681b      	ldr	r3, [r3, #0]
    138a:	f002 02ff 	and.w	r2, r2, #255	; 0xff
    138e:	2101      	movs	r1, #1
    1390:	4091      	lsls	r1, r2
    1392:	4219      	tst	r1, r3
    1394:	ea4f 0242 	mov.w	r2, r2, lsl #1
    1398:	bf18      	it	ne
    139a:	3201      	addne	r2, #1
    139c:	4b0b      	ldr	r3, [pc, #44]	; (13cc <GPIOPinConfigure+0x48>)
    139e:	f853 3022 	ldr.w	r3, [r3, r2, lsl #2]
    13a2:	0a02      	lsrs	r2, r0, #8
    13a4:	b510      	push	{r4, lr}
    13a6:	f002 02ff 	and.w	r2, r2, #255	; 0xff
    13aa:	f8d3 452c 	ldr.w	r4, [r3, #1324]	; 0x52c
    13ae:	210f      	movs	r1, #15
    13b0:	4091      	lsls	r1, r2
    13b2:	f000 000f 	and.w	r0, r0, #15
    13b6:	ea24 0101 	bic.w	r1, r4, r1
    13ba:	fa10 f202 	lsls.w	r2, r0, r2
    13be:	ea41 0202 	orr.w	r2, r1, r2
    13c2:	f8c3 252c 	str.w	r2, [r3, #1324]	; 0x52c
    13c6:	bd10      	pop	{r4, pc}
    13c8:	400fe06c 	.word	0x400fe06c
    13cc:	00002a90 	.word	0x00002a90

000013d0 <GPIODMATriggerEnable>:
    13d0:	f8d0 3534 	ldr.w	r3, [r0, #1332]	; 0x534
    13d4:	430b      	orrs	r3, r1
    13d6:	f8c0 3534 	str.w	r3, [r0, #1332]	; 0x534
    13da:	4770      	bx	lr

000013dc <GPIODMATriggerDisable>:
    13dc:	f8d0 3534 	ldr.w	r3, [r0, #1332]	; 0x534
    13e0:	ea23 0301 	bic.w	r3, r3, r1
    13e4:	f8c0 3534 	str.w	r3, [r0, #1332]	; 0x534
    13e8:	4770      	bx	lr

000013ea <GPIOADCTriggerEnable>:
    13ea:	f8d0 3530 	ldr.w	r3, [r0, #1328]	; 0x530
    13ee:	430b      	orrs	r3, r1
    13f0:	f8c0 3530 	str.w	r3, [r0, #1328]	; 0x530
    13f4:	4770      	bx	lr

000013f6 <GPIOADCTriggerDisable>:
    13f6:	f8d0 3530 	ldr.w	r3, [r0, #1328]	; 0x530
    13fa:	ea23 0301 	bic.w	r3, r3, r1
    13fe:	f8c0 3530 	str.w	r3, [r0, #1328]	; 0x530
    1402:	4770      	bx	lr

00001404 <_IntDefaultHandler>:
    1404:	e7fe      	b.n	1404 <_IntDefaultHandler>

00001406 <IntMasterEnable>:
    1406:	b508      	push	{r3, lr}
    1408:	f001 facd 	bl	29a6 <CPUcpsie>
    140c:	3800      	subs	r0, #0
    140e:	bf18      	it	ne
    1410:	2001      	movne	r0, #1
    1412:	bd08      	pop	{r3, pc}

00001414 <IntMasterDisable>:
    1414:	b508      	push	{r3, lr}
    1416:	f001 fabf 	bl	2998 <CPUcpsid>
    141a:	3800      	subs	r0, #0
    141c:	bf18      	it	ne
    141e:	2001      	movne	r0, #1
    1420:	bd08      	pop	{r3, pc}
	...

00001424 <IntRegister>:
    1424:	4b09      	ldr	r3, [pc, #36]	; (144c <IntRegister+0x28>)
    1426:	4a0a      	ldr	r2, [pc, #40]	; (1450 <IntRegister+0x2c>)
    1428:	b570      	push	{r4, r5, r6, lr}
    142a:	681c      	ldr	r4, [r3, #0]
    142c:	4294      	cmp	r4, r2
    142e:	4614      	mov	r4, r2
    1430:	d009      	beq.n	1446 <IntRegister+0x22>
    1432:	681d      	ldr	r5, [r3, #0]
    1434:	2300      	movs	r3, #0
    1436:	595e      	ldr	r6, [r3, r5]
    1438:	50e6      	str	r6, [r4, r3]
    143a:	3304      	adds	r3, #4
    143c:	f5b3 7f1b 	cmp.w	r3, #620	; 0x26c
    1440:	d1f9      	bne.n	1436 <IntRegister+0x12>
    1442:	4b02      	ldr	r3, [pc, #8]	; (144c <IntRegister+0x28>)
    1444:	601a      	str	r2, [r3, #0]
    1446:	f844 1020 	str.w	r1, [r4, r0, lsl #2]
    144a:	bd70      	pop	{r4, r5, r6, pc}
    144c:	e000ed08 	.word	0xe000ed08
    1450:	20000000 	.word	0x20000000

00001454 <IntUnregister>:
    1454:	4a02      	ldr	r2, [pc, #8]	; (1460 <IntUnregister+0xc>)
    1456:	4b03      	ldr	r3, [pc, #12]	; (1464 <IntUnregister+0x10>)
    1458:	f843 2020 	str.w	r2, [r3, r0, lsl #2]
    145c:	4770      	bx	lr
    145e:	bf00      	nop
    1460:	00001405 	.word	0x00001405
    1464:	20000000 	.word	0x20000000

00001468 <IntPriorityGroupingSet>:
    1468:	4b04      	ldr	r3, [pc, #16]	; (147c <IntPriorityGroupingSet+0x14>)
    146a:	4a05      	ldr	r2, [pc, #20]	; (1480 <IntPriorityGroupingSet+0x18>)
    146c:	f853 3020 	ldr.w	r3, [r3, r0, lsl #2]
    1470:	f043 63be 	orr.w	r3, r3, #99614720	; 0x5f00000
    1474:	f443 2320 	orr.w	r3, r3, #655360	; 0xa0000
    1478:	6013      	str	r3, [r2, #0]
    147a:	4770      	bx	lr
    147c:	00002be0 	.word	0x00002be0
    1480:	e000ed0c 	.word	0xe000ed0c

00001484 <IntPriorityGroupingGet>:
    1484:	4b06      	ldr	r3, [pc, #24]	; (14a0 <IntPriorityGroupingGet+0x1c>)
    1486:	681a      	ldr	r2, [r3, #0]
    1488:	4b06      	ldr	r3, [pc, #24]	; (14a4 <IntPriorityGroupingGet+0x20>)
    148a:	f402 62e0 	and.w	r2, r2, #1792	; 0x700
    148e:	2000      	movs	r0, #0
    1490:	f853 1f04 	ldr.w	r1, [r3, #4]!
    1494:	428a      	cmp	r2, r1
    1496:	d002      	beq.n	149e <IntPriorityGroupingGet+0x1a>
    1498:	3001      	adds	r0, #1
    149a:	2808      	cmp	r0, #8
    149c:	d1f8      	bne.n	1490 <IntPriorityGroupingGet+0xc>
    149e:	4770      	bx	lr
    14a0:	e000ed0c 	.word	0xe000ed0c
    14a4:	00002bdc 	.word	0x00002bdc

000014a8 <IntPrioritySet>:
    14a8:	0882      	lsrs	r2, r0, #2
    14aa:	4b08      	ldr	r3, [pc, #32]	; (14cc <IntPrioritySet+0x24>)
    14ac:	f853 3022 	ldr.w	r3, [r3, r2, lsl #2]
    14b0:	f000 0003 	and.w	r0, r0, #3
    14b4:	b510      	push	{r4, lr}
    14b6:	00c0      	lsls	r0, r0, #3
    14b8:	681c      	ldr	r4, [r3, #0]
    14ba:	22ff      	movs	r2, #255	; 0xff
    14bc:	4082      	lsls	r2, r0
    14be:	ea24 0202 	bic.w	r2, r4, r2
    14c2:	fa11 f000 	lsls.w	r0, r1, r0
    14c6:	4302      	orrs	r2, r0
    14c8:	601a      	str	r2, [r3, #0]
    14ca:	bd10      	pop	{r4, pc}
    14cc:	00002c28 	.word	0x00002c28

000014d0 <IntPriorityGet>:
    14d0:	0882      	lsrs	r2, r0, #2
    14d2:	4b05      	ldr	r3, [pc, #20]	; (14e8 <IntPriorityGet+0x18>)
    14d4:	f853 3022 	ldr.w	r3, [r3, r2, lsl #2]
    14d8:	f000 0003 	and.w	r0, r0, #3
    14dc:	681b      	ldr	r3, [r3, #0]
    14de:	00c0      	lsls	r0, r0, #3
    14e0:	fa33 f000 	lsrs.w	r0, r3, r0
    14e4:	b2c0      	uxtb	r0, r0
    14e6:	4770      	bx	lr
    14e8:	00002c28 	.word	0x00002c28

000014ec <IntEnable>:
    14ec:	2804      	cmp	r0, #4
    14ee:	d104      	bne.n	14fa <IntEnable+0xe>
    14f0:	4b13      	ldr	r3, [pc, #76]	; (1540 <IntEnable+0x54>)
    14f2:	681a      	ldr	r2, [r3, #0]
    14f4:	f442 3280 	orr.w	r2, r2, #65536	; 0x10000
    14f8:	e005      	b.n	1506 <IntEnable+0x1a>
    14fa:	2805      	cmp	r0, #5
    14fc:	d105      	bne.n	150a <IntEnable+0x1e>
    14fe:	4b10      	ldr	r3, [pc, #64]	; (1540 <IntEnable+0x54>)
    1500:	681a      	ldr	r2, [r3, #0]
    1502:	f442 3200 	orr.w	r2, r2, #131072	; 0x20000
    1506:	601a      	str	r2, [r3, #0]
    1508:	4770      	bx	lr
    150a:	2806      	cmp	r0, #6
    150c:	d104      	bne.n	1518 <IntEnable+0x2c>
    150e:	4b0c      	ldr	r3, [pc, #48]	; (1540 <IntEnable+0x54>)
    1510:	681a      	ldr	r2, [r3, #0]
    1512:	f442 2280 	orr.w	r2, r2, #262144	; 0x40000
    1516:	e7f6      	b.n	1506 <IntEnable+0x1a>
    1518:	280f      	cmp	r0, #15
    151a:	d104      	bne.n	1526 <IntEnable+0x3a>
    151c:	4b09      	ldr	r3, [pc, #36]	; (1544 <IntEnable+0x58>)
    151e:	681a      	ldr	r2, [r3, #0]
    1520:	f042 0202 	orr.w	r2, r2, #2
    1524:	e7ef      	b.n	1506 <IntEnable+0x1a>
    1526:	d90a      	bls.n	153e <IntEnable+0x52>
    1528:	3810      	subs	r0, #16
    152a:	0942      	lsrs	r2, r0, #5
    152c:	4b06      	ldr	r3, [pc, #24]	; (1548 <IntEnable+0x5c>)
    152e:	f000 001f 	and.w	r0, r0, #31
    1532:	f853 3022 	ldr.w	r3, [r3, r2, lsl #2]
    1536:	2201      	movs	r2, #1
    1538:	fa12 f000 	lsls.w	r0, r2, r0
    153c:	6018      	str	r0, [r3, #0]
    153e:	4770      	bx	lr
    1540:	e000ed24 	.word	0xe000ed24
    1544:	e000e010 	.word	0xe000e010
    1548:	00002cc4 	.word	0x00002cc4

0000154c <IntDisable>:
    154c:	2804      	cmp	r0, #4
    154e:	d104      	bne.n	155a <IntDisable+0xe>
    1550:	4b13      	ldr	r3, [pc, #76]	; (15a0 <IntDisable+0x54>)
    1552:	681a      	ldr	r2, [r3, #0]
    1554:	f422 3280 	bic.w	r2, r2, #65536	; 0x10000
    1558:	e005      	b.n	1566 <IntDisable+0x1a>
    155a:	2805      	cmp	r0, #5
    155c:	d105      	bne.n	156a <IntDisable+0x1e>
    155e:	4b10      	ldr	r3, [pc, #64]	; (15a0 <IntDisable+0x54>)
    1560:	681a      	ldr	r2, [r3, #0]
    1562:	f422 3200 	bic.w	r2, r2, #131072	; 0x20000
    1566:	601a      	str	r2, [r3, #0]
    1568:	4770      	bx	lr
    156a:	2806      	cmp	r0, #6
    156c:	d104      	bne.n	1578 <IntDisable+0x2c>
    156e:	4b0c      	ldr	r3, [pc, #48]	; (15a0 <IntDisable+0x54>)
    1570:	681a      	ldr	r2, [r3, #0]
    1572:	f422 2280 	bic.w	r2, r2, #262144	; 0x40000
    1576:	e7f6      	b.n	1566 <IntDisable+0x1a>
    1578:	280f      	cmp	r0, #15
    157a:	d104      	bne.n	1586 <IntDisable+0x3a>
    157c:	4b09      	ldr	r3, [pc, #36]	; (15a4 <IntDisable+0x58>)
    157e:	681a      	ldr	r2, [r3, #0]
    1580:	f022 0202 	bic.w	r2, r2, #2
    1584:	e7ef      	b.n	1566 <IntDisable+0x1a>
    1586:	d90a      	bls.n	159e <IntDisable+0x52>
    1588:	3810      	subs	r0, #16
    158a:	0942      	lsrs	r2, r0, #5
    158c:	4b06      	ldr	r3, [pc, #24]	; (15a8 <IntDisable+0x5c>)
    158e:	f000 001f 	and.w	r0, r0, #31
    1592:	f853 3022 	ldr.w	r3, [r3, r2, lsl #2]
    1596:	2201      	movs	r2, #1
    1598:	fa12 f000 	lsls.w	r0, r2, r0
    159c:	6018      	str	r0, [r3, #0]
    159e:	4770      	bx	lr
    15a0:	e000ed24 	.word	0xe000ed24
    15a4:	e000e010 	.word	0xe000e010
    15a8:	00002c00 	.word	0x00002c00

000015ac <IntIsEnabled>:
    15ac:	2804      	cmp	r0, #4
    15ae:	d104      	bne.n	15ba <IntIsEnabled+0xe>
    15b0:	4b14      	ldr	r3, [pc, #80]	; (1604 <IntIsEnabled+0x58>)
    15b2:	6818      	ldr	r0, [r3, #0]
    15b4:	f400 3080 	and.w	r0, r0, #65536	; 0x10000
    15b8:	4770      	bx	lr
    15ba:	2805      	cmp	r0, #5
    15bc:	d104      	bne.n	15c8 <IntIsEnabled+0x1c>
    15be:	4b11      	ldr	r3, [pc, #68]	; (1604 <IntIsEnabled+0x58>)
    15c0:	6818      	ldr	r0, [r3, #0]
    15c2:	f400 3000 	and.w	r0, r0, #131072	; 0x20000
    15c6:	4770      	bx	lr
    15c8:	2806      	cmp	r0, #6
    15ca:	d104      	bne.n	15d6 <IntIsEnabled+0x2a>
    15cc:	4b0d      	ldr	r3, [pc, #52]	; (1604 <IntIsEnabled+0x58>)
    15ce:	6818      	ldr	r0, [r3, #0]
    15d0:	f400 2080 	and.w	r0, r0, #262144	; 0x40000
    15d4:	4770      	bx	lr
    15d6:	280f      	cmp	r0, #15
    15d8:	d104      	bne.n	15e4 <IntIsEnabled+0x38>
    15da:	4b0b      	ldr	r3, [pc, #44]	; (1608 <IntIsEnabled+0x5c>)
    15dc:	6818      	ldr	r0, [r3, #0]
    15de:	f000 0002 	and.w	r0, r0, #2
    15e2:	4770      	bx	lr
    15e4:	d90c      	bls.n	1600 <IntIsEnabled+0x54>
    15e6:	3810      	subs	r0, #16
    15e8:	0942      	lsrs	r2, r0, #5
    15ea:	4b08      	ldr	r3, [pc, #32]	; (160c <IntIsEnabled+0x60>)
    15ec:	f853 3022 	ldr.w	r3, [r3, r2, lsl #2]
    15f0:	f000 001f 	and.w	r0, r0, #31
    15f4:	681b      	ldr	r3, [r3, #0]
    15f6:	2201      	movs	r2, #1
    15f8:	fa12 f000 	lsls.w	r0, r2, r0
    15fc:	4018      	ands	r0, r3
    15fe:	4770      	bx	lr
    1600:	2000      	movs	r0, #0
    1602:	4770      	bx	lr
    1604:	e000ed24 	.word	0xe000ed24
    1608:	e000e010 	.word	0xe000e010
    160c:	00002cc4 	.word	0x00002cc4

00001610 <IntPendSet>:
    1610:	2802      	cmp	r0, #2
    1612:	d104      	bne.n	161e <IntPendSet+0xe>
    1614:	4b10      	ldr	r3, [pc, #64]	; (1658 <IntPendSet+0x48>)
    1616:	681a      	ldr	r2, [r3, #0]
    1618:	f042 4200 	orr.w	r2, r2, #2147483648	; 0x80000000
    161c:	e005      	b.n	162a <IntPendSet+0x1a>
    161e:	280e      	cmp	r0, #14
    1620:	d105      	bne.n	162e <IntPendSet+0x1e>
    1622:	4b0d      	ldr	r3, [pc, #52]	; (1658 <IntPendSet+0x48>)
    1624:	681a      	ldr	r2, [r3, #0]
    1626:	f042 5280 	orr.w	r2, r2, #268435456	; 0x10000000
    162a:	601a      	str	r2, [r3, #0]
    162c:	4770      	bx	lr
    162e:	280f      	cmp	r0, #15
    1630:	d104      	bne.n	163c <IntPendSet+0x2c>
    1632:	4b09      	ldr	r3, [pc, #36]	; (1658 <IntPendSet+0x48>)
    1634:	681a      	ldr	r2, [r3, #0]
    1636:	f042 6280 	orr.w	r2, r2, #67108864	; 0x4000000
    163a:	e7f6      	b.n	162a <IntPendSet+0x1a>
    163c:	d90a      	bls.n	1654 <IntPendSet+0x44>
    163e:	3810      	subs	r0, #16
    1640:	0942      	lsrs	r2, r0, #5
    1642:	4b06      	ldr	r3, [pc, #24]	; (165c <IntPendSet+0x4c>)
    1644:	f000 001f 	and.w	r0, r0, #31
    1648:	f853 3022 	ldr.w	r3, [r3, r2, lsl #2]
    164c:	2201      	movs	r2, #1
    164e:	fa12 f000 	lsls.w	r0, r2, r0
    1652:	6018      	str	r0, [r3, #0]
    1654:	4770      	bx	lr
    1656:	bf00      	nop
    1658:	e000ed04 	.word	0xe000ed04
    165c:	00002c14 	.word	0x00002c14

00001660 <IntPendClear>:
    1660:	280e      	cmp	r0, #14
    1662:	d104      	bne.n	166e <IntPendClear+0xe>
    1664:	4b0c      	ldr	r3, [pc, #48]	; (1698 <IntPendClear+0x38>)
    1666:	681a      	ldr	r2, [r3, #0]
    1668:	f042 6200 	orr.w	r2, r2, #134217728	; 0x8000000
    166c:	e005      	b.n	167a <IntPendClear+0x1a>
    166e:	280f      	cmp	r0, #15
    1670:	d105      	bne.n	167e <IntPendClear+0x1e>
    1672:	4b09      	ldr	r3, [pc, #36]	; (1698 <IntPendClear+0x38>)
    1674:	681a      	ldr	r2, [r3, #0]
    1676:	f042 7200 	orr.w	r2, r2, #33554432	; 0x2000000
    167a:	601a      	str	r2, [r3, #0]
    167c:	4770      	bx	lr
    167e:	d90a      	bls.n	1696 <IntPendClear+0x36>
    1680:	3810      	subs	r0, #16
    1682:	0942      	lsrs	r2, r0, #5
    1684:	4b05      	ldr	r3, [pc, #20]	; (169c <IntPendClear+0x3c>)
    1686:	f000 001f 	and.w	r0, r0, #31
    168a:	f853 3022 	ldr.w	r3, [r3, r2, lsl #2]
    168e:	2201      	movs	r2, #1
    1690:	fa12 f000 	lsls.w	r0, r2, r0
    1694:	6018      	str	r0, [r3, #0]
    1696:	4770      	bx	lr
    1698:	e000ed04 	.word	0xe000ed04
    169c:	00002cd8 	.word	0x00002cd8

000016a0 <IntPriorityMaskSet>:
    16a0:	f001 b987 	b.w	29b2 <CPUbasepriSet>

000016a4 <IntPriorityMaskGet>:
    16a4:	f001 b988 	b.w	29b8 <CPUbasepriGet>

000016a8 <IntTrigger>:
    16a8:	4b01      	ldr	r3, [pc, #4]	; (16b0 <IntTrigger+0x8>)
    16aa:	3810      	subs	r0, #16
    16ac:	6018      	str	r0, [r3, #0]
    16ae:	4770      	bx	lr
    16b0:	e000ef00 	.word	0xe000ef00

000016b4 <_SSIIntNumberGet>:
    16b4:	4b0c      	ldr	r3, [pc, #48]	; (16e8 <_SSIIntNumberGet+0x34>)
    16b6:	490d      	ldr	r1, [pc, #52]	; (16ec <_SSIIntNumberGet+0x38>)
    16b8:	681a      	ldr	r2, [r3, #0]
    16ba:	4b0d      	ldr	r3, [pc, #52]	; (16f0 <_SSIIntNumberGet+0x3c>)
    16bc:	b510      	push	{r4, lr}
    16be:	ea02 0303 	and.w	r3, r2, r3
    16c2:	4c0c      	ldr	r4, [pc, #48]	; (16f4 <_SSIIntNumberGet+0x40>)
    16c4:	4a0c      	ldr	r2, [pc, #48]	; (16f8 <_SSIIntNumberGet+0x44>)
    16c6:	42a3      	cmp	r3, r4
    16c8:	bf18      	it	ne
    16ca:	460a      	movne	r2, r1
    16cc:	2300      	movs	r3, #0
    16ce:	58d4      	ldr	r4, [r2, r3]
    16d0:	4284      	cmp	r4, r0
    16d2:	eb02 0103 	add.w	r1, r2, r3
    16d6:	d101      	bne.n	16dc <_SSIIntNumberGet+0x28>
    16d8:	6848      	ldr	r0, [r1, #4]
    16da:	bd10      	pop	{r4, pc}
    16dc:	3308      	adds	r3, #8
    16de:	2b20      	cmp	r3, #32
    16e0:	d1f5      	bne.n	16ce <_SSIIntNumberGet+0x1a>
    16e2:	2000      	movs	r0, #0
    16e4:	bd10      	pop	{r4, pc}
    16e6:	bf00      	nop
    16e8:	400fe000 	.word	0x400fe000
    16ec:	00002cec 	.word	0x00002cec
    16f0:	70ff0000 	.word	0x70ff0000
    16f4:	100a0000 	.word	0x100a0000
    16f8:	00002d0c 	.word	0x00002d0c

000016fc <SSIConfigSetExpClk>:
    16fc:	2b02      	cmp	r3, #2
    16fe:	b510      	push	{r4, lr}
    1700:	d002      	beq.n	1708 <SSIConfigSetExpClk+0xc>
    1702:	b123      	cbz	r3, 170e <SSIConfigSetExpClk+0x12>
    1704:	2300      	movs	r3, #0
    1706:	e000      	b.n	170a <SSIConfigSetExpClk+0xe>
    1708:	2308      	movs	r3, #8
    170a:	2404      	movs	r4, #4
    170c:	e000      	b.n	1710 <SSIConfigSetExpClk+0x14>
    170e:	461c      	mov	r4, r3
    1710:	4323      	orrs	r3, r4
    1712:	6043      	str	r3, [r0, #4]
    1714:	9b02      	ldr	r3, [sp, #8]
    1716:	fbb1 f1f3 	udiv	r1, r1, r3
    171a:	2300      	movs	r3, #0
    171c:	3302      	adds	r3, #2
    171e:	fbb1 f4f3 	udiv	r4, r1, r3
    1722:	3c01      	subs	r4, #1
    1724:	2cff      	cmp	r4, #255	; 0xff
    1726:	d8f9      	bhi.n	171c <SSIConfigSetExpClk+0x20>
    1728:	6103      	str	r3, [r0, #16]
    172a:	0193      	lsls	r3, r2, #6
    172c:	f003 03ff 	and.w	r3, r3, #255	; 0xff
    1730:	f002 0230 	and.w	r2, r2, #48	; 0x30
    1734:	ea43 0202 	orr.w	r2, r3, r2
    1738:	9b03      	ldr	r3, [sp, #12]
    173a:	3b01      	subs	r3, #1
    173c:	431a      	orrs	r2, r3
    173e:	ea42 2404 	orr.w	r4, r2, r4, lsl #8
    1742:	6004      	str	r4, [r0, #0]
    1744:	bd10      	pop	{r4, pc}

00001746 <SSIEnable>:
    1746:	6843      	ldr	r3, [r0, #4]
    1748:	f043 0302 	orr.w	r3, r3, #2
    174c:	6043      	str	r3, [r0, #4]
    174e:	4770      	bx	lr

00001750 <SSIDisable>:
    1750:	6843      	ldr	r3, [r0, #4]
    1752:	f023 0302 	bic.w	r3, r3, #2
    1756:	6043      	str	r3, [r0, #4]
    1758:	4770      	bx	lr

0000175a <SSIIntRegister>:
    175a:	b570      	push	{r4, r5, r6, lr}
    175c:	460d      	mov	r5, r1
    175e:	f7ff ffa9 	bl	16b4 <_SSIIntNumberGet>
    1762:	4629      	mov	r1, r5
    1764:	4604      	mov	r4, r0
    1766:	f7ff fe5d 	bl	1424 <IntRegister>
    176a:	4620      	mov	r0, r4
    176c:	e8bd 4070 	ldmia.w	sp!, {r4, r5, r6, lr}
    1770:	f7ff bebc 	b.w	14ec <IntEnable>

00001774 <SSIIntUnregister>:
    1774:	b510      	push	{r4, lr}
    1776:	f7ff ff9d 	bl	16b4 <_SSIIntNumberGet>
    177a:	4604      	mov	r4, r0
    177c:	f7ff fee6 	bl	154c <IntDisable>
    1780:	4620      	mov	r0, r4
    1782:	e8bd 4010 	ldmia.w	sp!, {r4, lr}
    1786:	f7ff be65 	b.w	1454 <IntUnregister>

0000178a <SSIIntEnable>:
    178a:	6943      	ldr	r3, [r0, #20]
    178c:	430b      	orrs	r3, r1
    178e:	6143      	str	r3, [r0, #20]
    1790:	4770      	bx	lr

00001792 <SSIIntDisable>:
    1792:	6943      	ldr	r3, [r0, #20]
    1794:	ea23 0301 	bic.w	r3, r3, r1
    1798:	6143      	str	r3, [r0, #20]
    179a:	4770      	bx	lr

0000179c <SSIIntStatus>:
    179c:	b109      	cbz	r1, 17a2 <SSIIntStatus+0x6>
    179e:	69c0      	ldr	r0, [r0, #28]
    17a0:	4770      	bx	lr
    17a2:	6980      	ldr	r0, [r0, #24]
    17a4:	4770      	bx	lr

000017a6 <SSIIntClear>:
    17a6:	6201      	str	r1, [r0, #32]
    17a8:	4770      	bx	lr

000017aa <SSIDataPut>:
    17aa:	68c3      	ldr	r3, [r0, #12]
    17ac:	f013 0f02 	tst.w	r3, #2
    17b0:	d0fb      	beq.n	17aa <SSIDataPut>
    17b2:	6081      	str	r1, [r0, #8]
    17b4:	4770      	bx	lr

000017b6 <SSIDataPutNonBlocking>:
    17b6:	68c3      	ldr	r3, [r0, #12]
    17b8:	f013 0302 	ands.w	r3, r3, #2
    17bc:	d002      	beq.n	17c4 <SSIDataPutNonBlocking+0xe>
    17be:	6081      	str	r1, [r0, #8]
    17c0:	2001      	movs	r0, #1
    17c2:	4770      	bx	lr
    17c4:	4618      	mov	r0, r3
    17c6:	4770      	bx	lr

000017c8 <SSIDataGet>:
    17c8:	68c3      	ldr	r3, [r0, #12]
    17ca:	f013 0f04 	tst.w	r3, #4
    17ce:	d0fb      	beq.n	17c8 <SSIDataGet>
    17d0:	6883      	ldr	r3, [r0, #8]
    17d2:	600b      	str	r3, [r1, #0]
    17d4:	4770      	bx	lr

000017d6 <SSIDataGetNonBlocking>:
    17d6:	68c3      	ldr	r3, [r0, #12]
    17d8:	f013 0304 	ands.w	r3, r3, #4
    17dc:	d003      	beq.n	17e6 <SSIDataGetNonBlocking+0x10>
    17de:	6883      	ldr	r3, [r0, #8]
    17e0:	2001      	movs	r0, #1
    17e2:	600b      	str	r3, [r1, #0]
    17e4:	4770      	bx	lr
    17e6:	4618      	mov	r0, r3
    17e8:	4770      	bx	lr

000017ea <SSIDMAEnable>:
    17ea:	6a43      	ldr	r3, [r0, #36]	; 0x24
    17ec:	430b      	orrs	r3, r1
    17ee:	6243      	str	r3, [r0, #36]	; 0x24
    17f0:	4770      	bx	lr

000017f2 <SSIDMADisable>:
    17f2:	6a43      	ldr	r3, [r0, #36]	; 0x24
    17f4:	ea23 0301 	bic.w	r3, r3, r1
    17f8:	6243      	str	r3, [r0, #36]	; 0x24
    17fa:	4770      	bx	lr

000017fc <SSIBusy>:
    17fc:	68c0      	ldr	r0, [r0, #12]
    17fe:	f3c0 1000 	ubfx	r0, r0, #4, #1
    1802:	4770      	bx	lr

00001804 <SSIClockSourceSet>:
    1804:	f8c0 1fc8 	str.w	r1, [r0, #4040]	; 0xfc8
    1808:	4770      	bx	lr

0000180a <SSIClockSourceGet>:
    180a:	f8d0 0fc8 	ldr.w	r0, [r0, #4040]	; 0xfc8
    180e:	4770      	bx	lr

00001810 <SSIAdvModeSet>:
    1810:	6843      	ldr	r3, [r0, #4]
    1812:	f423 73e0 	bic.w	r3, r3, #448	; 0x1c0
    1816:	430b      	orrs	r3, r1
    1818:	6043      	str	r3, [r0, #4]
    181a:	4770      	bx	lr

0000181c <SSIAdvDataPutFrameEnd>:
    181c:	68c3      	ldr	r3, [r0, #12]
    181e:	f013 0f02 	tst.w	r3, #2
    1822:	d0fb      	beq.n	181c <SSIAdvDataPutFrameEnd>
    1824:	6843      	ldr	r3, [r0, #4]
    1826:	f443 6300 	orr.w	r3, r3, #2048	; 0x800
    182a:	6043      	str	r3, [r0, #4]
    182c:	6081      	str	r1, [r0, #8]
    182e:	4770      	bx	lr

00001830 <SSIAdvDataPutFrameEndNonBlocking>:
    1830:	68c3      	ldr	r3, [r0, #12]
    1832:	f013 0302 	ands.w	r3, r3, #2
    1836:	d006      	beq.n	1846 <SSIAdvDataPutFrameEndNonBlocking+0x16>
    1838:	6843      	ldr	r3, [r0, #4]
    183a:	f443 6300 	orr.w	r3, r3, #2048	; 0x800
    183e:	6043      	str	r3, [r0, #4]
    1840:	6081      	str	r1, [r0, #8]
    1842:	2001      	movs	r0, #1
    1844:	4770      	bx	lr
    1846:	4618      	mov	r0, r3
    1848:	4770      	bx	lr

0000184a <SSIAdvFrameHoldEnable>:
    184a:	6843      	ldr	r3, [r0, #4]
    184c:	f443 6380 	orr.w	r3, r3, #1024	; 0x400
    1850:	6043      	str	r3, [r0, #4]
    1852:	4770      	bx	lr

00001854 <SSIAdvFrameHoldDisable>:
    1854:	6843      	ldr	r3, [r0, #4]
    1856:	f423 6380 	bic.w	r3, r3, #1024	; 0x400
    185a:	6043      	str	r3, [r0, #4]
    185c:	4770      	bx	lr
	...

00001860 <_SysCtlMemTimingGet>:
    1860:	b510      	push	{r4, lr}
    1862:	2300      	movs	r3, #0
    1864:	4a06      	ldr	r2, [pc, #24]	; (1880 <_SysCtlMemTimingGet+0x20>)
    1866:	f852 4033 	ldr.w	r4, [r2, r3, lsl #3]
    186a:	00d9      	lsls	r1, r3, #3
    186c:	42a0      	cmp	r0, r4
    186e:	d802      	bhi.n	1876 <_SysCtlMemTimingGet+0x16>
    1870:	1852      	adds	r2, r2, r1
    1872:	6850      	ldr	r0, [r2, #4]
    1874:	bd10      	pop	{r4, pc}
    1876:	3301      	adds	r3, #1
    1878:	2b06      	cmp	r3, #6
    187a:	d1f3      	bne.n	1864 <_SysCtlMemTimingGet+0x4>
    187c:	2000      	movs	r0, #0
    187e:	bd10      	pop	{r4, pc}
    1880:	00002e54 	.word	0x00002e54

00001884 <SysCtlSRAMSizeGet>:
    1884:	4b02      	ldr	r3, [pc, #8]	; (1890 <SysCtlSRAMSizeGet+0xc>)
    1886:	6818      	ldr	r0, [r3, #0]
    1888:	3001      	adds	r0, #1
    188a:	0200      	lsls	r0, r0, #8
    188c:	4770      	bx	lr
    188e:	bf00      	nop
    1890:	400fdfc4 	.word	0x400fdfc4

00001894 <SysCtlFlashSizeGet>:
    1894:	4b0a      	ldr	r3, [pc, #40]	; (18c0 <SysCtlFlashSizeGet+0x2c>)
    1896:	681a      	ldr	r2, [r3, #0]
    1898:	4b0a      	ldr	r3, [pc, #40]	; (18c4 <SysCtlFlashSizeGet+0x30>)
    189a:	ea02 0303 	and.w	r3, r2, r3
    189e:	4a0a      	ldr	r2, [pc, #40]	; (18c8 <SysCtlFlashSizeGet+0x34>)
    18a0:	4293      	cmp	r3, r2
    18a2:	d106      	bne.n	18b2 <SysCtlFlashSizeGet+0x1e>
    18a4:	4b09      	ldr	r3, [pc, #36]	; (18cc <SysCtlFlashSizeGet+0x38>)
    18a6:	6818      	ldr	r0, [r3, #0]
    18a8:	b280      	uxth	r0, r0
    18aa:	02c0      	lsls	r0, r0, #11
    18ac:	f500 6000 	add.w	r0, r0, #2048	; 0x800
    18b0:	4770      	bx	lr
    18b2:	4b07      	ldr	r3, [pc, #28]	; (18d0 <SysCtlFlashSizeGet+0x3c>)
    18b4:	6818      	ldr	r0, [r3, #0]
    18b6:	b280      	uxth	r0, r0
    18b8:	3001      	adds	r0, #1
    18ba:	02c0      	lsls	r0, r0, #11
    18bc:	4770      	bx	lr
    18be:	bf00      	nop
    18c0:	400fe000 	.word	0x400fe000
    18c4:	70ff0000 	.word	0x70ff0000
    18c8:	10050000 	.word	0x10050000
    18cc:	400fe008 	.word	0x400fe008
    18d0:	400fdfc0 	.word	0x400fdfc0

000018d4 <SysCtlFlashSectorSizeGet>:
    18d4:	4b0a      	ldr	r3, [pc, #40]	; (1900 <SysCtlFlashSectorSizeGet+0x2c>)
    18d6:	681a      	ldr	r2, [r3, #0]
    18d8:	4b0a      	ldr	r3, [pc, #40]	; (1904 <SysCtlFlashSectorSizeGet+0x30>)
    18da:	ea02 0303 	and.w	r3, r2, r3
    18de:	4a0a      	ldr	r2, [pc, #40]	; (1908 <SysCtlFlashSectorSizeGet+0x34>)
    18e0:	4293      	cmp	r3, r2
    18e2:	d109      	bne.n	18f8 <SysCtlFlashSectorSizeGet+0x24>
    18e4:	4b09      	ldr	r3, [pc, #36]	; (190c <SysCtlFlashSectorSizeGet+0x38>)
    18e6:	6818      	ldr	r0, [r3, #0]
    18e8:	f400 20e0 	and.w	r0, r0, #458752	; 0x70000
    18ec:	0c00      	lsrs	r0, r0, #16
    18ee:	300a      	adds	r0, #10
    18f0:	2301      	movs	r3, #1
    18f2:	fa13 f000 	lsls.w	r0, r3, r0
    18f6:	4770      	bx	lr
    18f8:	f44f 6080 	mov.w	r0, #1024	; 0x400
    18fc:	4770      	bx	lr
    18fe:	bf00      	nop
    1900:	400fe000 	.word	0x400fe000
    1904:	70ff0000 	.word	0x70ff0000
    1908:	100a0000 	.word	0x100a0000
    190c:	400fdfc0 	.word	0x400fdfc0

00001910 <SysCtlPeripheralPresent>:
    1910:	4b0b      	ldr	r3, [pc, #44]	; (1940 <SysCtlPeripheralPresent+0x30>)
    1912:	f400 427f 	and.w	r2, r0, #65280	; 0xff00
    1916:	f000 00ff 	and.w	r0, r0, #255	; 0xff
    191a:	eb03 2312 	add.w	r3, r3, r2, lsr #8
    191e:	0080      	lsls	r0, r0, #2
    1920:	f003 4270 	and.w	r2, r3, #4026531840	; 0xf0000000
    1924:	f040 7000 	orr.w	r0, r0, #33554432	; 0x2000000
    1928:	f023 437f 	bic.w	r3, r3, #4278190080	; 0xff000000
    192c:	4310      	orrs	r0, r2
    192e:	f423 0370 	bic.w	r3, r3, #15728640	; 0xf00000
    1932:	ea40 1343 	orr.w	r3, r0, r3, lsl #5
    1936:	6818      	ldr	r0, [r3, #0]
    1938:	3800      	subs	r0, #0
    193a:	bf18      	it	ne
    193c:	2001      	movne	r0, #1
    193e:	4770      	bx	lr
    1940:	400fe300 	.word	0x400fe300

00001944 <SysCtlPeripheralReady>:
    1944:	4b0b      	ldr	r3, [pc, #44]	; (1974 <SysCtlPeripheralReady+0x30>)
    1946:	f400 427f 	and.w	r2, r0, #65280	; 0xff00
    194a:	f000 00ff 	and.w	r0, r0, #255	; 0xff
    194e:	eb03 2312 	add.w	r3, r3, r2, lsr #8
    1952:	0080      	lsls	r0, r0, #2
    1954:	f003 4270 	and.w	r2, r3, #4026531840	; 0xf0000000
    1958:	f040 7000 	orr.w	r0, r0, #33554432	; 0x2000000
    195c:	f023 437f 	bic.w	r3, r3, #4278190080	; 0xff000000
    1960:	4310      	orrs	r0, r2
    1962:	f423 0370 	bic.w	r3, r3, #15728640	; 0xf00000
    1966:	ea40 1343 	orr.w	r3, r0, r3, lsl #5
    196a:	6818      	ldr	r0, [r3, #0]
    196c:	3800      	subs	r0, #0
    196e:	bf18      	it	ne
    1970:	2001      	movne	r0, #1
    1972:	4770      	bx	lr
    1974:	400fea00 	.word	0x400fea00

00001978 <SysCtlPeripheralPowerOn>:
    1978:	4b0a      	ldr	r3, [pc, #40]	; (19a4 <SysCtlPeripheralPowerOn+0x2c>)
    197a:	f400 427f 	and.w	r2, r0, #65280	; 0xff00
    197e:	f000 00ff 	and.w	r0, r0, #255	; 0xff
    1982:	eb03 2312 	add.w	r3, r3, r2, lsr #8
    1986:	0080      	lsls	r0, r0, #2
    1988:	f003 4270 	and.w	r2, r3, #4026531840	; 0xf0000000
    198c:	f040 7000 	orr.w	r0, r0, #33554432	; 0x2000000
    1990:	f023 437f 	bic.w	r3, r3, #4278190080	; 0xff000000
    1994:	4310      	orrs	r0, r2
    1996:	f423 0370 	bic.w	r3, r3, #15728640	; 0xf00000
    199a:	ea40 1343 	orr.w	r3, r0, r3, lsl #5
    199e:	2201      	movs	r2, #1
    19a0:	601a      	str	r2, [r3, #0]
    19a2:	4770      	bx	lr
    19a4:	400fe900 	.word	0x400fe900

000019a8 <SysCtlPeripheralPowerOff>:
    19a8:	4b0a      	ldr	r3, [pc, #40]	; (19d4 <SysCtlPeripheralPowerOff+0x2c>)
    19aa:	f400 427f 	and.w	r2, r0, #65280	; 0xff00
    19ae:	f000 00ff 	and.w	r0, r0, #255	; 0xff
    19b2:	eb03 2312 	add.w	r3, r3, r2, lsr #8
    19b6:	0080      	lsls	r0, r0, #2
    19b8:	f003 4270 	and.w	r2, r3, #4026531840	; 0xf0000000
    19bc:	f040 7000 	orr.w	r0, r0, #33554432	; 0x2000000
    19c0:	f023 437f 	bic.w	r3, r3, #4278190080	; 0xff000000
    19c4:	4310      	orrs	r0, r2
    19c6:	f423 0370 	bic.w	r3, r3, #15728640	; 0xf00000
    19ca:	ea40 1343 	orr.w	r3, r0, r3, lsl #5
    19ce:	2200      	movs	r2, #0
    19d0:	601a      	str	r2, [r3, #0]
    19d2:	4770      	bx	lr
    19d4:	400fe900 	.word	0x400fe900

000019d8 <SysCtlPeripheralReset>:
    19d8:	f400 427f 	and.w	r2, r0, #65280	; 0xff00
    19dc:	4b0f      	ldr	r3, [pc, #60]	; (1a1c <SysCtlPeripheralReset+0x44>)
    19de:	0a12      	lsrs	r2, r2, #8
    19e0:	f000 00ff 	and.w	r0, r0, #255	; 0xff
    19e4:	18d3      	adds	r3, r2, r3
    19e6:	0080      	lsls	r0, r0, #2
    19e8:	f003 4270 	and.w	r2, r3, #4026531840	; 0xf0000000
    19ec:	f040 7000 	orr.w	r0, r0, #33554432	; 0x2000000
    19f0:	f023 437f 	bic.w	r3, r3, #4278190080	; 0xff000000
    19f4:	4310      	orrs	r0, r2
    19f6:	f423 0370 	bic.w	r3, r3, #15728640	; 0xf00000
    19fa:	ea40 1343 	orr.w	r3, r0, r3, lsl #5
    19fe:	2201      	movs	r2, #1
    1a00:	601a      	str	r2, [r3, #0]
    1a02:	b082      	sub	sp, #8
    1a04:	3a01      	subs	r2, #1
    1a06:	e001      	b.n	1a0c <SysCtlPeripheralReset+0x34>
    1a08:	9a01      	ldr	r2, [sp, #4]
    1a0a:	3201      	adds	r2, #1
    1a0c:	9201      	str	r2, [sp, #4]
    1a0e:	9a01      	ldr	r2, [sp, #4]
    1a10:	2a0f      	cmp	r2, #15
    1a12:	d9f9      	bls.n	1a08 <SysCtlPeripheralReset+0x30>
    1a14:	2200      	movs	r2, #0
    1a16:	601a      	str	r2, [r3, #0]
    1a18:	b002      	add	sp, #8
    1a1a:	4770      	bx	lr
    1a1c:	400fe500 	.word	0x400fe500

00001a20 <SysCtlPeripheralEnable>:
    1a20:	4b0a      	ldr	r3, [pc, #40]	; (1a4c <SysCtlPeripheralEnable+0x2c>)
    1a22:	f400 427f 	and.w	r2, r0, #65280	; 0xff00
    1a26:	f000 00ff 	and.w	r0, r0, #255	; 0xff
    1a2a:	eb03 2312 	add.w	r3, r3, r2, lsr #8
    1a2e:	0080      	lsls	r0, r0, #2
    1a30:	f003 4270 	and.w	r2, r3, #4026531840	; 0xf0000000
    1a34:	f040 7000 	orr.w	r0, r0, #33554432	; 0x2000000
    1a38:	f023 437f 	bic.w	r3, r3, #4278190080	; 0xff000000
    1a3c:	4310      	orrs	r0, r2
    1a3e:	f423 0370 	bic.w	r3, r3, #15728640	; 0xf00000
    1a42:	ea40 1343 	orr.w	r3, r0, r3, lsl #5
    1a46:	2201      	movs	r2, #1
    1a48:	601a      	str	r2, [r3, #0]
    1a4a:	4770      	bx	lr
    1a4c:	400fe600 	.word	0x400fe600

00001a50 <SysCtlPeripheralDisable>:
    1a50:	4b0a      	ldr	r3, [pc, #40]	; (1a7c <SysCtlPeripheralDisable+0x2c>)
    1a52:	f400 427f 	and.w	r2, r0, #65280	; 0xff00
    1a56:	f000 00ff 	and.w	r0, r0, #255	; 0xff
    1a5a:	eb03 2312 	add.w	r3, r3, r2, lsr #8
    1a5e:	0080      	lsls	r0, r0, #2
    1a60:	f003 4270 	and.w	r2, r3, #4026531840	; 0xf0000000
    1a64:	f040 7000 	orr.w	r0, r0, #33554432	; 0x2000000
    1a68:	f023 437f 	bic.w	r3, r3, #4278190080	; 0xff000000
    1a6c:	4310      	orrs	r0, r2
    1a6e:	f423 0370 	bic.w	r3, r3, #15728640	; 0xf00000
    1a72:	ea40 1343 	orr.w	r3, r0, r3, lsl #5
    1a76:	2200      	movs	r2, #0
    1a78:	601a      	str	r2, [r3, #0]
    1a7a:	4770      	bx	lr
    1a7c:	400fe600 	.word	0x400fe600

00001a80 <SysCtlPeripheralSleepEnable>:
    1a80:	4b0a      	ldr	r3, [pc, #40]	; (1aac <SysCtlPeripheralSleepEnable+0x2c>)
    1a82:	f400 427f 	and.w	r2, r0, #65280	; 0xff00
    1a86:	f000 00ff 	and.w	r0, r0, #255	; 0xff
    1a8a:	eb03 2312 	add.w	r3, r3, r2, lsr #8
    1a8e:	0080      	lsls	r0, r0, #2
    1a90:	f003 4270 	and.w	r2, r3, #4026531840	; 0xf0000000
    1a94:	f040 7000 	orr.w	r0, r0, #33554432	; 0x2000000
    1a98:	f023 437f 	bic.w	r3, r3, #4278190080	; 0xff000000
    1a9c:	4310      	orrs	r0, r2
    1a9e:	f423 0370 	bic.w	r3, r3, #15728640	; 0xf00000
    1aa2:	ea40 1343 	orr.w	r3, r0, r3, lsl #5
    1aa6:	2201      	movs	r2, #1
    1aa8:	601a      	str	r2, [r3, #0]
    1aaa:	4770      	bx	lr
    1aac:	400fe700 	.word	0x400fe700

00001ab0 <SysCtlPeripheralSleepDisable>:
    1ab0:	4b0a      	ldr	r3, [pc, #40]	; (1adc <SysCtlPeripheralSleepDisable+0x2c>)
    1ab2:	f400 427f 	and.w	r2, r0, #65280	; 0xff00
    1ab6:	f000 00ff 	and.w	r0, r0, #255	; 0xff
    1aba:	eb03 2312 	add.w	r3, r3, r2, lsr #8
    1abe:	0080      	lsls	r0, r0, #2
    1ac0:	f003 4270 	and.w	r2, r3, #4026531840	; 0xf0000000
    1ac4:	f040 7000 	orr.w	r0, r0, #33554432	; 0x2000000
    1ac8:	f023 437f 	bic.w	r3, r3, #4278190080	; 0xff000000
    1acc:	4310      	orrs	r0, r2
    1ace:	f423 0370 	bic.w	r3, r3, #15728640	; 0xf00000
    1ad2:	ea40 1343 	orr.w	r3, r0, r3, lsl #5
    1ad6:	2200      	movs	r2, #0
    1ad8:	601a      	str	r2, [r3, #0]
    1ada:	4770      	bx	lr
    1adc:	400fe700 	.word	0x400fe700

00001ae0 <SysCtlPeripheralDeepSleepEnable>:
    1ae0:	4b0a      	ldr	r3, [pc, #40]	; (1b0c <SysCtlPeripheralDeepSleepEnable+0x2c>)
    1ae2:	f400 427f 	and.w	r2, r0, #65280	; 0xff00
    1ae6:	f000 00ff 	and.w	r0, r0, #255	; 0xff
    1aea:	eb03 2312 	add.w	r3, r3, r2, lsr #8
    1aee:	0080      	lsls	r0, r0, #2
    1af0:	f003 4270 	and.w	r2, r3, #4026531840	; 0xf0000000
    1af4:	f040 7000 	orr.w	r0, r0, #33554432	; 0x2000000
    1af8:	f023 437f 	bic.w	r3, r3, #4278190080	; 0xff000000
    1afc:	4310      	orrs	r0, r2
    1afe:	f423 0370 	bic.w	r3, r3, #15728640	; 0xf00000
    1b02:	ea40 1343 	orr.w	r3, r0, r3, lsl #5
    1b06:	2201      	movs	r2, #1
    1b08:	601a      	str	r2, [r3, #0]
    1b0a:	4770      	bx	lr
    1b0c:	400fe800 	.word	0x400fe800

00001b10 <SysCtlPeripheralDeepSleepDisable>:
    1b10:	4b0a      	ldr	r3, [pc, #40]	; (1b3c <SysCtlPeripheralDeepSleepDisable+0x2c>)
    1b12:	f400 427f 	and.w	r2, r0, #65280	; 0xff00
    1b16:	f000 00ff 	and.w	r0, r0, #255	; 0xff
    1b1a:	eb03 2312 	add.w	r3, r3, r2, lsr #8
    1b1e:	0080      	lsls	r0, r0, #2
    1b20:	f003 4270 	and.w	r2, r3, #4026531840	; 0xf0000000
    1b24:	f040 7000 	orr.w	r0, r0, #33554432	; 0x2000000
    1b28:	f023 437f 	bic.w	r3, r3, #4278190080	; 0xff000000
    1b2c:	4310      	orrs	r0, r2
    1b2e:	f423 0370 	bic.w	r3, r3, #15728640	; 0xf00000
    1b32:	ea40 1343 	orr.w	r3, r0, r3, lsl #5
    1b36:	2200      	movs	r2, #0
    1b38:	601a      	str	r2, [r3, #0]
    1b3a:	4770      	bx	lr
    1b3c:	400fe800 	.word	0x400fe800

00001b40 <SysCtlPeripheralClockGating>:
    1b40:	4b0e      	ldr	r3, [pc, #56]	; (1b7c <SysCtlPeripheralClockGating+0x3c>)
    1b42:	681a      	ldr	r2, [r3, #0]
    1b44:	4b0e      	ldr	r3, [pc, #56]	; (1b80 <SysCtlPeripheralClockGating+0x40>)
    1b46:	ea02 0303 	and.w	r3, r2, r3
    1b4a:	4a0e      	ldr	r2, [pc, #56]	; (1b84 <SysCtlPeripheralClockGating+0x44>)
    1b4c:	4293      	cmp	r3, r2
    1b4e:	d109      	bne.n	1b64 <SysCtlPeripheralClockGating+0x24>
    1b50:	4b0d      	ldr	r3, [pc, #52]	; (1b88 <SysCtlPeripheralClockGating+0x48>)
    1b52:	b118      	cbz	r0, 1b5c <SysCtlPeripheralClockGating+0x1c>
    1b54:	681a      	ldr	r2, [r3, #0]
    1b56:	f042 6200 	orr.w	r2, r2, #134217728	; 0x8000000
    1b5a:	e00c      	b.n	1b76 <SysCtlPeripheralClockGating+0x36>
    1b5c:	681a      	ldr	r2, [r3, #0]
    1b5e:	f022 6200 	bic.w	r2, r2, #134217728	; 0x8000000
    1b62:	e008      	b.n	1b76 <SysCtlPeripheralClockGating+0x36>
    1b64:	4b09      	ldr	r3, [pc, #36]	; (1b8c <SysCtlPeripheralClockGating+0x4c>)
    1b66:	b118      	cbz	r0, 1b70 <SysCtlPeripheralClockGating+0x30>
    1b68:	681a      	ldr	r2, [r3, #0]
    1b6a:	f042 5200 	orr.w	r2, r2, #536870912	; 0x20000000
    1b6e:	e002      	b.n	1b76 <SysCtlPeripheralClockGating+0x36>
    1b70:	681a      	ldr	r2, [r3, #0]
    1b72:	f022 5200 	bic.w	r2, r2, #536870912	; 0x20000000
    1b76:	601a      	str	r2, [r3, #0]
    1b78:	4770      	bx	lr
    1b7a:	bf00      	nop
    1b7c:	400fe000 	.word	0x400fe000
    1b80:	70ff0000 	.word	0x70ff0000
    1b84:	10050000 	.word	0x10050000
    1b88:	400fe060 	.word	0x400fe060
    1b8c:	400fe0b0 	.word	0x400fe0b0

00001b90 <SysCtlIntRegister>:
    1b90:	b510      	push	{r4, lr}
    1b92:	4601      	mov	r1, r0
    1b94:	202c      	movs	r0, #44	; 0x2c
    1b96:	f7ff fc45 	bl	1424 <IntRegister>
    1b9a:	202c      	movs	r0, #44	; 0x2c
    1b9c:	e8bd 4010 	ldmia.w	sp!, {r4, lr}
    1ba0:	f7ff bca4 	b.w	14ec <IntEnable>

00001ba4 <SysCtlIntUnregister>:
    1ba4:	b510      	push	{r4, lr}
    1ba6:	202c      	movs	r0, #44	; 0x2c
    1ba8:	f7ff fcd0 	bl	154c <IntDisable>
    1bac:	202c      	movs	r0, #44	; 0x2c
    1bae:	e8bd 4010 	ldmia.w	sp!, {r4, lr}
    1bb2:	f7ff bc4f 	b.w	1454 <IntUnregister>
	...

00001bb8 <SysCtlIntEnable>:
    1bb8:	4b02      	ldr	r3, [pc, #8]	; (1bc4 <SysCtlIntEnable+0xc>)
    1bba:	681a      	ldr	r2, [r3, #0]
    1bbc:	ea40 0202 	orr.w	r2, r0, r2
    1bc0:	601a      	str	r2, [r3, #0]
    1bc2:	4770      	bx	lr
    1bc4:	400fe054 	.word	0x400fe054

00001bc8 <SysCtlIntDisable>:
    1bc8:	4b02      	ldr	r3, [pc, #8]	; (1bd4 <SysCtlIntDisable+0xc>)
    1bca:	681a      	ldr	r2, [r3, #0]
    1bcc:	ea22 0200 	bic.w	r2, r2, r0
    1bd0:	601a      	str	r2, [r3, #0]
    1bd2:	4770      	bx	lr
    1bd4:	400fe054 	.word	0x400fe054

00001bd8 <SysCtlIntClear>:
    1bd8:	4b01      	ldr	r3, [pc, #4]	; (1be0 <SysCtlIntClear+0x8>)
    1bda:	6018      	str	r0, [r3, #0]
    1bdc:	4770      	bx	lr
    1bde:	bf00      	nop
    1be0:	400fe058 	.word	0x400fe058

00001be4 <SysCtlIntStatus>:
    1be4:	b110      	cbz	r0, 1bec <SysCtlIntStatus+0x8>
    1be6:	4b03      	ldr	r3, [pc, #12]	; (1bf4 <SysCtlIntStatus+0x10>)
    1be8:	6818      	ldr	r0, [r3, #0]
    1bea:	4770      	bx	lr
    1bec:	4b02      	ldr	r3, [pc, #8]	; (1bf8 <SysCtlIntStatus+0x14>)
    1bee:	6818      	ldr	r0, [r3, #0]
    1bf0:	4770      	bx	lr
    1bf2:	bf00      	nop
    1bf4:	400fe058 	.word	0x400fe058
    1bf8:	400fe050 	.word	0x400fe050

00001bfc <SysCtlLDOSleepSet>:
    1bfc:	4b01      	ldr	r3, [pc, #4]	; (1c04 <SysCtlLDOSleepSet+0x8>)
    1bfe:	6018      	str	r0, [r3, #0]
    1c00:	4770      	bx	lr
    1c02:	bf00      	nop
    1c04:	400fe1b4 	.word	0x400fe1b4

00001c08 <SysCtlLDOSleepGet>:
    1c08:	4b01      	ldr	r3, [pc, #4]	; (1c10 <SysCtlLDOSleepGet+0x8>)
    1c0a:	6818      	ldr	r0, [r3, #0]
    1c0c:	4770      	bx	lr
    1c0e:	bf00      	nop
    1c10:	400fe1b4 	.word	0x400fe1b4

00001c14 <SysCtlLDODeepSleepSet>:
    1c14:	4b01      	ldr	r3, [pc, #4]	; (1c1c <SysCtlLDODeepSleepSet+0x8>)
    1c16:	6018      	str	r0, [r3, #0]
    1c18:	4770      	bx	lr
    1c1a:	bf00      	nop
    1c1c:	400fe1bc 	.word	0x400fe1bc

00001c20 <SysCtlLDODeepSleepGet>:
    1c20:	4b01      	ldr	r3, [pc, #4]	; (1c28 <SysCtlLDODeepSleepGet+0x8>)
    1c22:	6818      	ldr	r0, [r3, #0]
    1c24:	4770      	bx	lr
    1c26:	bf00      	nop
    1c28:	400fe1bc 	.word	0x400fe1bc

00001c2c <SysCtlSleepPowerSet>:
    1c2c:	4b01      	ldr	r3, [pc, #4]	; (1c34 <SysCtlSleepPowerSet+0x8>)
    1c2e:	6018      	str	r0, [r3, #0]
    1c30:	4770      	bx	lr
    1c32:	bf00      	nop
    1c34:	400fe188 	.word	0x400fe188

00001c38 <SysCtlDeepSleepPowerSet>:
    1c38:	4b01      	ldr	r3, [pc, #4]	; (1c40 <SysCtlDeepSleepPowerSet+0x8>)
    1c3a:	6018      	str	r0, [r3, #0]
    1c3c:	4770      	bx	lr
    1c3e:	bf00      	nop
    1c40:	400fe18c 	.word	0x400fe18c

00001c44 <SysCtlReset>:
    1c44:	4a01      	ldr	r2, [pc, #4]	; (1c4c <SysCtlReset+0x8>)
    1c46:	4b02      	ldr	r3, [pc, #8]	; (1c50 <SysCtlReset+0xc>)
    1c48:	601a      	str	r2, [r3, #0]
    1c4a:	e7fe      	b.n	1c4a <SysCtlReset+0x6>
    1c4c:	05fa0004 	.word	0x05fa0004
    1c50:	e000ed0c 	.word	0xe000ed0c

00001c54 <SysCtlSleep>:
    1c54:	f000 beab 	b.w	29ae <CPUwfi>

00001c58 <SysCtlDeepSleep>:
    1c58:	b510      	push	{r4, lr}
    1c5a:	4c06      	ldr	r4, [pc, #24]	; (1c74 <SysCtlDeepSleep+0x1c>)
    1c5c:	6823      	ldr	r3, [r4, #0]
    1c5e:	f043 0304 	orr.w	r3, r3, #4
    1c62:	6023      	str	r3, [r4, #0]
    1c64:	f000 fea3 	bl	29ae <CPUwfi>
    1c68:	6823      	ldr	r3, [r4, #0]
    1c6a:	f023 0304 	bic.w	r3, r3, #4
    1c6e:	6023      	str	r3, [r4, #0]
    1c70:	bd10      	pop	{r4, pc}
    1c72:	bf00      	nop
    1c74:	e000ed10 	.word	0xe000ed10

00001c78 <SysCtlResetCauseGet>:
    1c78:	4b01      	ldr	r3, [pc, #4]	; (1c80 <SysCtlResetCauseGet+0x8>)
    1c7a:	6818      	ldr	r0, [r3, #0]
    1c7c:	4770      	bx	lr
    1c7e:	bf00      	nop
    1c80:	400fe05c 	.word	0x400fe05c

00001c84 <SysCtlResetCauseClear>:
    1c84:	4b02      	ldr	r3, [pc, #8]	; (1c90 <SysCtlResetCauseClear+0xc>)
    1c86:	681a      	ldr	r2, [r3, #0]
    1c88:	ea22 0200 	bic.w	r2, r2, r0
    1c8c:	601a      	str	r2, [r3, #0]
    1c8e:	4770      	bx	lr
    1c90:	400fe05c 	.word	0x400fe05c

00001c94 <SysCtlDelay>:
    1c94:	3801      	subs	r0, #1
    1c96:	d1fd      	bne.n	1c94 <SysCtlDelay>
    1c98:	4770      	bx	lr
	...

00001c9c <SysCtlMOSCConfigSet>:
    1c9c:	4b01      	ldr	r3, [pc, #4]	; (1ca4 <SysCtlMOSCConfigSet+0x8>)
    1c9e:	6018      	str	r0, [r3, #0]
    1ca0:	4770      	bx	lr
    1ca2:	bf00      	nop
    1ca4:	400fe07c 	.word	0x400fe07c

00001ca8 <SysCtlPIOSCCalibrate>:
    1ca8:	4b10      	ldr	r3, [pc, #64]	; (1cec <SysCtlPIOSCCalibrate+0x44>)
    1caa:	ea00 0303 	and.w	r3, r0, r3
    1cae:	b13b      	cbz	r3, 1cc0 <SysCtlPIOSCCalibrate+0x18>
    1cb0:	4a0f      	ldr	r2, [pc, #60]	; (1cf0 <SysCtlPIOSCCalibrate+0x48>)
    1cb2:	f000 4300 	and.w	r3, r0, #2147483648	; 0x80000000
    1cb6:	6013      	str	r3, [r2, #0]
    1cb8:	4b0e      	ldr	r3, [pc, #56]	; (1cf4 <SysCtlPIOSCCalibrate+0x4c>)
    1cba:	ea00 0303 	and.w	r3, r0, r3
    1cbe:	6013      	str	r3, [r2, #0]
    1cc0:	4b0b      	ldr	r3, [pc, #44]	; (1cf0 <SysCtlPIOSCCalibrate+0x48>)
    1cc2:	f410 7f00 	tst.w	r0, #512	; 0x200
    1cc6:	6018      	str	r0, [r3, #0]
    1cc8:	d00d      	beq.n	1ce6 <SysCtlPIOSCCalibrate+0x3e>
    1cca:	4b0b      	ldr	r3, [pc, #44]	; (1cf8 <SysCtlPIOSCCalibrate+0x50>)
    1ccc:	681a      	ldr	r2, [r3, #0]
    1cce:	f412 7f40 	tst.w	r2, #768	; 0x300
    1cd2:	d0fa      	beq.n	1cca <SysCtlPIOSCCalibrate+0x22>
    1cd4:	6818      	ldr	r0, [r3, #0]
    1cd6:	f400 7040 	and.w	r0, r0, #768	; 0x300
    1cda:	f5a0 7380 	sub.w	r3, r0, #256	; 0x100
    1cde:	4258      	negs	r0, r3
    1ce0:	eb40 0003 	adc.w	r0, r0, r3
    1ce4:	4770      	bx	lr
    1ce6:	2001      	movs	r0, #1
    1ce8:	4770      	bx	lr
    1cea:	bf00      	nop
    1cec:	80000100 	.word	0x80000100
    1cf0:	400fe150 	.word	0x400fe150
    1cf4:	8000007f 	.word	0x8000007f
    1cf8:	400fe154 	.word	0x400fe154

00001cfc <SysCtlResetBehaviorSet>:
    1cfc:	4b01      	ldr	r3, [pc, #4]	; (1d04 <SysCtlResetBehaviorSet+0x8>)
    1cfe:	6018      	str	r0, [r3, #0]
    1d00:	4770      	bx	lr
    1d02:	bf00      	nop
    1d04:	400fe1d8 	.word	0x400fe1d8

00001d08 <SysCtlResetBehaviorGet>:
    1d08:	4b01      	ldr	r3, [pc, #4]	; (1d10 <SysCtlResetBehaviorGet+0x8>)
    1d0a:	6818      	ldr	r0, [r3, #0]
    1d0c:	4770      	bx	lr
    1d0e:	bf00      	nop
    1d10:	400fe1d8 	.word	0x400fe1d8

00001d14 <SysCtlClockFreqSet>:
    1d14:	e92d 43f8 	stmdb	sp!, {r3, r4, r5, r6, r7, r8, r9, lr}
    1d18:	4b86      	ldr	r3, [pc, #536]	; (1f34 <SysCtlClockFreqSet+0x220>)
    1d1a:	681a      	ldr	r2, [r3, #0]
    1d1c:	4b86      	ldr	r3, [pc, #536]	; (1f38 <SysCtlClockFreqSet+0x224>)
    1d1e:	ea02 0303 	and.w	r3, r2, r3
    1d22:	4a86      	ldr	r2, [pc, #536]	; (1f3c <SysCtlClockFreqSet+0x228>)
    1d24:	4293      	cmp	r3, r2
    1d26:	460c      	mov	r4, r1
    1d28:	f000 80fc 	beq.w	1f24 <SysCtlClockFreqSet+0x210>
    1d2c:	f000 0338 	and.w	r3, r0, #56	; 0x38
    1d30:	2b10      	cmp	r3, #16
    1d32:	d01b      	beq.n	1d6c <SysCtlClockFreqSet+0x58>
    1d34:	f400 67f8 	and.w	r7, r0, #1984	; 0x7c0
    1d38:	09bf      	lsrs	r7, r7, #6
    1d3a:	2b30      	cmp	r3, #48	; 0x30
    1d3c:	d01a      	beq.n	1d74 <SysCtlClockFreqSet+0x60>
    1d3e:	2b38      	cmp	r3, #56	; 0x38
    1d40:	d01d      	beq.n	1d7e <SysCtlClockFreqSet+0x6a>
    1d42:	bb0b      	cbnz	r3, 1d88 <SysCtlClockFreqSet+0x74>
    1d44:	f1a7 0209 	sub.w	r2, r7, #9
    1d48:	2a11      	cmp	r2, #17
    1d4a:	f200 80ed 	bhi.w	1f28 <SysCtlClockFreqSet+0x214>
    1d4e:	4a7c      	ldr	r2, [pc, #496]	; (1f40 <SysCtlClockFreqSet+0x22c>)
    1d50:	497c      	ldr	r1, [pc, #496]	; (1f44 <SysCtlClockFreqSet+0x230>)
    1d52:	f852 6027 	ldr.w	r6, [r2, r7, lsl #2]
    1d56:	680a      	ldr	r2, [r1, #0]
    1d58:	2f06      	cmp	r7, #6
    1d5a:	f022 021c 	bic.w	r2, r2, #28
    1d5e:	bfc8      	it	gt
    1d60:	f042 0210 	orrgt.w	r2, r2, #16
    1d64:	600a      	str	r2, [r1, #0]
    1d66:	f04f 754c 	mov.w	r5, #53477376	; 0x3300000
    1d6a:	e00f      	b.n	1d8c <SysCtlClockFreqSet+0x78>
    1d6c:	2500      	movs	r5, #0
    1d6e:	4e76      	ldr	r6, [pc, #472]	; (1f48 <SysCtlClockFreqSet+0x234>)
    1d70:	2715      	movs	r7, #21
    1d72:	e00b      	b.n	1d8c <SysCtlClockFreqSet+0x78>
    1d74:	f44f 1500 	mov.w	r5, #2097152	; 0x200000
    1d78:	f247 5630 	movw	r6, #30000	; 0x7530
    1d7c:	e006      	b.n	1d8c <SysCtlClockFreqSet+0x78>
    1d7e:	f44f 0580 	mov.w	r5, #4194304	; 0x400000
    1d82:	f44f 4600 	mov.w	r6, #32768	; 0x8000
    1d86:	e001      	b.n	1d8c <SysCtlClockFreqSet+0x78>
    1d88:	2500      	movs	r5, #0
    1d8a:	462e      	mov	r6, r5
    1d8c:	f410 5260 	ands.w	r2, r0, #14336	; 0x3800
    1d90:	f040 809b 	bne.w	1eca <SysCtlClockFreqSet+0x1b6>
    1d94:	b113      	cbz	r3, 1d9c <SysCtlClockFreqSet+0x88>
    1d96:	2b10      	cmp	r3, #16
    1d98:	f040 80c8 	bne.w	1f2c <SysCtlClockFreqSet+0x218>
    1d9c:	0e00      	lsrs	r0, r0, #24
    1d9e:	f000 0807 	and.w	r8, r0, #7
    1da2:	486a      	ldr	r0, [pc, #424]	; (1f4c <SysCtlClockFreqSet+0x238>)
    1da4:	f7ff fd5c 	bl	1860 <_SysCtlMemTimingGet>
    1da8:	4b69      	ldr	r3, [pc, #420]	; (1f50 <SysCtlClockFreqSet+0x23c>)
    1daa:	4a6a      	ldr	r2, [pc, #424]	; (1f54 <SysCtlClockFreqSet+0x240>)
    1dac:	6018      	str	r0, [r3, #0]
    1dae:	6811      	ldr	r1, [r2, #0]
    1db0:	4b69      	ldr	r3, [pc, #420]	; (1f58 <SysCtlClockFreqSet+0x244>)
    1db2:	ea01 0303 	and.w	r3, r1, r3
    1db6:	f043 4300 	orr.w	r3, r3, #2147483648	; 0x80000000
    1dba:	6013      	str	r3, [r2, #0]
    1dbc:	4b67      	ldr	r3, [pc, #412]	; (1f5c <SysCtlClockFreqSet+0x248>)
    1dbe:	3f09      	subs	r7, #9
    1dc0:	6818      	ldr	r0, [r3, #0]
    1dc2:	4b67      	ldr	r3, [pc, #412]	; (1f60 <SysCtlClockFreqSet+0x24c>)
    1dc4:	2112      	movs	r1, #18
    1dc6:	fb01 7108 	mla	r1, r1, r8, r7
    1dca:	eb03 02c1 	add.w	r2, r3, r1, lsl #3
    1dce:	6852      	ldr	r2, [r2, #4]
    1dd0:	4290      	cmp	r0, r2
    1dd2:	4618      	mov	r0, r3
    1dd4:	d109      	bne.n	1dea <SysCtlClockFreqSet+0xd6>
    1dd6:	f8df e190 	ldr.w	lr, [pc, #400]	; 1f68 <SysCtlClockFreqSet+0x254>
    1dda:	f853 3031 	ldr.w	r3, [r3, r1, lsl #3]
    1dde:	f8de e000 	ldr.w	lr, [lr]
    1de2:	f443 0300 	orr.w	r3, r3, #8388608	; 0x800000
    1de6:	459e      	cmp	lr, r3
    1de8:	d015      	beq.n	1e16 <SysCtlClockFreqSet+0x102>
    1dea:	4b5a      	ldr	r3, [pc, #360]	; (1f54 <SysCtlClockFreqSet+0x240>)
    1dec:	6819      	ldr	r1, [r3, #0]
    1dee:	ea45 0101 	orr.w	r1, r5, r1
    1df2:	6019      	str	r1, [r3, #0]
    1df4:	2112      	movs	r1, #18
    1df6:	f8c3 20b4 	str.w	r2, [r3, #180]	; 0xb4
    1dfa:	fb01 7708 	mla	r7, r1, r8, r7
    1dfe:	f8d3 20b0 	ldr.w	r2, [r3, #176]	; 0xb0
    1e02:	f850 1037 	ldr.w	r1, [r0, r7, lsl #3]
    1e06:	f402 0200 	and.w	r2, r2, #8388608	; 0x800000
    1e0a:	430a      	orrs	r2, r1
    1e0c:	f8c3 20b0 	str.w	r2, [r3, #176]	; 0xb0
    1e10:	f04f 0901 	mov.w	r9, #1
    1e14:	e001      	b.n	1e1a <SysCtlClockFreqSet+0x106>
    1e16:	f04f 0900 	mov.w	r9, #0
    1e1a:	4b52      	ldr	r3, [pc, #328]	; (1f64 <SysCtlClockFreqSet+0x250>)
    1e1c:	4f52      	ldr	r7, [pc, #328]	; (1f68 <SysCtlClockFreqSet+0x254>)
    1e1e:	f853 3028 	ldr.w	r3, [r3, r8, lsl #2]
    1e22:	494e      	ldr	r1, [pc, #312]	; (1f5c <SysCtlClockFreqSet+0x248>)
    1e24:	1e62      	subs	r2, r4, #1
    1e26:	eb02 0803 	add.w	r8, r2, r3
    1e2a:	683a      	ldr	r2, [r7, #0]
    1e2c:	4b4f      	ldr	r3, [pc, #316]	; (1f6c <SysCtlClockFreqSet+0x258>)
    1e2e:	fbb8 f8f4 	udiv	r8, r8, r4
    1e32:	ea02 0303 	and.w	r3, r2, r3
    1e36:	683a      	ldr	r2, [r7, #0]
    1e38:	6808      	ldr	r0, [r1, #0]
    1e3a:	680c      	ldr	r4, [r1, #0]
    1e3c:	f004 041f 	and.w	r4, r4, #31
    1e40:	3401      	adds	r4, #1
    1e42:	0bd9      	lsrs	r1, r3, #15
    1e44:	fbb6 f6f4 	udiv	r6, r6, r4
    1e48:	fb01 f406 	mul.w	r4, r1, r6
    1e4c:	0149      	lsls	r1, r1, #5
    1e4e:	ebc1 2393 	rsb	r3, r1, r3, lsr #10
    1e52:	4373      	muls	r3, r6
    1e54:	0a9b      	lsrs	r3, r3, #10
    1e56:	eb03 1454 	add.w	r4, r3, r4, lsr #5
    1e5a:	0592      	lsls	r2, r2, #22
    1e5c:	f400 53f8 	and.w	r3, r0, #7936	; 0x1f00
    1e60:	0d92      	lsrs	r2, r2, #22
    1e62:	0a1b      	lsrs	r3, r3, #8
    1e64:	3301      	adds	r3, #1
    1e66:	fb02 4606 	mla	r6, r2, r6, r4
    1e6a:	fbb6 f4f3 	udiv	r4, r6, r3
    1e6e:	fbb4 f4f8 	udiv	r4, r4, r8
    1e72:	4620      	mov	r0, r4
    1e74:	f7ff fcf4 	bl	1860 <_SysCtlMemTimingGet>
    1e78:	4b35      	ldr	r3, [pc, #212]	; (1f50 <SysCtlClockFreqSet+0x23c>)
    1e7a:	6018      	str	r0, [r3, #0]
    1e7c:	683b      	ldr	r3, [r7, #0]
    1e7e:	f413 0f00 	tst.w	r3, #8388608	; 0x800000
    1e82:	d008      	beq.n	1e96 <SysCtlClockFreqSet+0x182>
    1e84:	f1b9 0f00 	cmp.w	r9, #0
    1e88:	d009      	beq.n	1e9e <SysCtlClockFreqSet+0x18a>
    1e8a:	4b32      	ldr	r3, [pc, #200]	; (1f54 <SysCtlClockFreqSet+0x240>)
    1e8c:	681a      	ldr	r2, [r3, #0]
    1e8e:	f042 4280 	orr.w	r2, r2, #1073741824	; 0x40000000
    1e92:	601a      	str	r2, [r3, #0]
    1e94:	e003      	b.n	1e9e <SysCtlClockFreqSet+0x18a>
    1e96:	683b      	ldr	r3, [r7, #0]
    1e98:	f443 0300 	orr.w	r3, r3, #8388608	; 0x800000
    1e9c:	603b      	str	r3, [r7, #0]
    1e9e:	f44f 4300 	mov.w	r3, #32768	; 0x8000
    1ea2:	4a33      	ldr	r2, [pc, #204]	; (1f70 <SysCtlClockFreqSet+0x25c>)
    1ea4:	6812      	ldr	r2, [r2, #0]
    1ea6:	f012 0f01 	tst.w	r2, #1
    1eaa:	d102      	bne.n	1eb2 <SysCtlClockFreqSet+0x19e>
    1eac:	3b01      	subs	r3, #1
    1eae:	d1f8      	bne.n	1ea2 <SysCtlClockFreqSet+0x18e>
    1eb0:	e03a      	b.n	1f28 <SysCtlClockFreqSet+0x214>
    1eb2:	4b28      	ldr	r3, [pc, #160]	; (1f54 <SysCtlClockFreqSet+0x240>)
    1eb4:	681a      	ldr	r2, [r3, #0]
    1eb6:	f108 38ff 	add.w	r8, r8, #4294967295	; 0xffffffff
    1eba:	f042 4210 	orr.w	r2, r2, #2415919104	; 0x90000000
    1ebe:	ea42 0808 	orr.w	r8, r2, r8
    1ec2:	ea48 0505 	orr.w	r5, r8, r5
    1ec6:	601d      	str	r5, [r3, #0]
    1ec8:	e031      	b.n	1f2e <SysCtlClockFreqSet+0x21a>
    1eca:	481f      	ldr	r0, [pc, #124]	; (1f48 <SysCtlClockFreqSet+0x234>)
    1ecc:	f7ff fcc8 	bl	1860 <_SysCtlMemTimingGet>
    1ed0:	4b1f      	ldr	r3, [pc, #124]	; (1f50 <SysCtlClockFreqSet+0x23c>)
    1ed2:	6018      	str	r0, [r3, #0]
    1ed4:	f8d3 20a0 	ldr.w	r2, [r3, #160]	; 0xa0
    1ed8:	f422 0200 	bic.w	r2, r2, #8388608	; 0x800000
    1edc:	f8c3 20a0 	str.w	r2, [r3, #160]	; 0xa0
    1ee0:	4a1c      	ldr	r2, [pc, #112]	; (1f54 <SysCtlClockFreqSet+0x240>)
    1ee2:	4b24      	ldr	r3, [pc, #144]	; (1f74 <SysCtlClockFreqSet+0x260>)
    1ee4:	6811      	ldr	r1, [r2, #0]
    1ee6:	ea01 0303 	and.w	r3, r1, r3
    1eea:	f043 4300 	orr.w	r3, r3, #2147483648	; 0x80000000
    1eee:	6013      	str	r3, [r2, #0]
    1ef0:	b13c      	cbz	r4, 1f02 <SysCtlClockFreqSet+0x1ee>
    1ef2:	fbb6 f7f4 	udiv	r7, r6, r4
    1ef6:	b107      	cbz	r7, 1efa <SysCtlClockFreqSet+0x1e6>
    1ef8:	3f01      	subs	r7, #1
    1efa:	1c7c      	adds	r4, r7, #1
    1efc:	fbb6 f4f4 	udiv	r4, r6, r4
    1f00:	e000      	b.n	1f04 <SysCtlClockFreqSet+0x1f0>
    1f02:	4627      	mov	r7, r4
    1f04:	4620      	mov	r0, r4
    1f06:	f7ff fcab 	bl	1860 <_SysCtlMemTimingGet>
    1f0a:	4b11      	ldr	r3, [pc, #68]	; (1f50 <SysCtlClockFreqSet+0x23c>)
    1f0c:	6018      	str	r0, [r3, #0]
    1f0e:	f853 2c10 	ldr.w	r2, [r3, #-16]
    1f12:	f042 4200 	orr.w	r2, r2, #2147483648	; 0x80000000
    1f16:	ea42 0505 	orr.w	r5, r2, r5
    1f1a:	ea45 2787 	orr.w	r7, r5, r7, lsl #10
    1f1e:	f843 7c10 	str.w	r7, [r3, #-16]
    1f22:	e004      	b.n	1f2e <SysCtlClockFreqSet+0x21a>
    1f24:	2400      	movs	r4, #0
    1f26:	e002      	b.n	1f2e <SysCtlClockFreqSet+0x21a>
    1f28:	461c      	mov	r4, r3
    1f2a:	e000      	b.n	1f2e <SysCtlClockFreqSet+0x21a>
    1f2c:	4614      	mov	r4, r2
    1f2e:	4620      	mov	r0, r4
    1f30:	e8bd 83f8 	ldmia.w	sp!, {r3, r4, r5, r6, r7, r8, r9, pc}
    1f34:	400fe000 	.word	0x400fe000
    1f38:	70ff0000 	.word	0x70ff0000
    1f3c:	10050000 	.word	0x10050000
    1f40:	00002e84 	.word	0x00002e84
    1f44:	400fe07c 	.word	0x400fe07c
    1f48:	00f42400 	.word	0x00f42400
    1f4c:	017d7840 	.word	0x017d7840
    1f50:	400fe0c0 	.word	0x400fe0c0
    1f54:	400fe0b0 	.word	0x400fe0b0
    1f58:	e00ffc00 	.word	0xe00ffc00
    1f5c:	400fe164 	.word	0x400fe164
    1f60:	00002d2c 	.word	0x00002d2c
    1f64:	00002e4c 	.word	0x00002e4c
    1f68:	400fe160 	.word	0x400fe160
    1f6c:	000ffc00 	.word	0x000ffc00
    1f70:	400fe168 	.word	0x400fe168
    1f74:	ef0003ff 	.word	0xef0003ff

00001f78 <SysCtlClockSet>:
    1f78:	4941      	ldr	r1, [pc, #260]	; (2080 <SysCtlClockSet+0x108>)
    1f7a:	b5f0      	push	{r4, r5, r6, r7, lr}
    1f7c:	4e41      	ldr	r6, [pc, #260]	; (2084 <SysCtlClockSet+0x10c>)
    1f7e:	680d      	ldr	r5, [r1, #0]
    1f80:	6834      	ldr	r4, [r6, #0]
    1f82:	f445 6500 	orr.w	r5, r5, #2048	; 0x800
    1f86:	f425 0380 	bic.w	r3, r5, #4194304	; 0x400000
    1f8a:	f444 6400 	orr.w	r4, r4, #2048	; 0x800
    1f8e:	f015 0f01 	tst.w	r5, #1
    1f92:	600b      	str	r3, [r1, #0]
    1f94:	6034      	str	r4, [r6, #0]
    1f96:	d016      	beq.n	1fc6 <SysCtlClockSet+0x4e>
    1f98:	f010 0f01 	tst.w	r0, #1
    1f9c:	d113      	bne.n	1fc6 <SysCtlClockSet+0x4e>
    1f9e:	f060 0201 	orn	r2, r0, #1
    1fa2:	4013      	ands	r3, r2
    1fa4:	4a38      	ldr	r2, [pc, #224]	; (2088 <SysCtlClockSet+0x110>)
    1fa6:	f44f 7580 	mov.w	r5, #256	; 0x100
    1faa:	6015      	str	r5, [r2, #0]
    1fac:	600b      	str	r3, [r1, #0]
    1fae:	f44f 2200 	mov.w	r2, #524288	; 0x80000
    1fb2:	e001      	b.n	1fb8 <SysCtlClockSet+0x40>
    1fb4:	3a01      	subs	r2, #1
    1fb6:	d062      	beq.n	207e <SysCtlClockSet+0x106>
    1fb8:	4934      	ldr	r1, [pc, #208]	; (208c <SysCtlClockSet+0x114>)
    1fba:	6809      	ldr	r1, [r1, #0]
    1fbc:	f411 7f80 	tst.w	r1, #256	; 0x100
    1fc0:	d0f8      	beq.n	1fb4 <SysCtlClockSet+0x3c>
    1fc2:	2a00      	cmp	r2, #0
    1fc4:	d05b      	beq.n	207e <SysCtlClockSet+0x106>
    1fc6:	f400 62fe 	and.w	r2, r0, #2032	; 0x7f0
    1fca:	f423 63fe 	bic.w	r3, r3, #2032	; 0x7f0
    1fce:	4930      	ldr	r1, [pc, #192]	; (2090 <SysCtlClockSet+0x118>)
    1fd0:	4e2d      	ldr	r6, [pc, #180]	; (2088 <SysCtlClockSet+0x110>)
    1fd2:	4313      	orrs	r3, r2
    1fd4:	f024 4200 	bic.w	r2, r4, #2147483648	; 0x80000000
    1fd8:	ea00 0101 	and.w	r1, r0, r1
    1fdc:	f022 0270 	bic.w	r2, r2, #112	; 0x70
    1fe0:	ea41 0202 	orr.w	r2, r1, r2
    1fe4:	f000 0108 	and.w	r1, r0, #8
    1fe8:	ea42 02c1 	orr.w	r2, r2, r1, lsl #3
    1fec:	4c24      	ldr	r4, [pc, #144]	; (2080 <SysCtlClockSet+0x108>)
    1fee:	4925      	ldr	r1, [pc, #148]	; (2084 <SysCtlClockSet+0x10c>)
    1ff0:	6023      	str	r3, [r4, #0]
    1ff2:	f400 5500 	and.w	r5, r0, #8192	; 0x2000
    1ff6:	600a      	str	r2, [r1, #0]
    1ff8:	f423 5300 	bic.w	r3, r3, #8192	; 0x2000
    1ffc:	f422 5200 	bic.w	r2, r2, #8192	; 0x2000
    2000:	432b      	orrs	r3, r5
    2002:	2740      	movs	r7, #64	; 0x40
    2004:	432a      	orrs	r2, r5
    2006:	6037      	str	r7, [r6, #0]
    2008:	bf4e      	itee	mi
    200a:	600a      	strmi	r2, [r1, #0]
    200c:	6023      	strpl	r3, [r4, #0]
    200e:	600a      	strpl	r2, [r1, #0]
    2010:	4920      	ldr	r1, [pc, #128]	; (2094 <SysCtlClockSet+0x11c>)
    2012:	bf48      	it	mi
    2014:	6023      	strmi	r3, [r4, #0]
    2016:	f023 63f8 	bic.w	r3, r3, #130023424	; 0x7c00000
    201a:	ea00 0101 	and.w	r1, r0, r1
    201e:	f023 0301 	bic.w	r3, r3, #1
    2022:	430b      	orrs	r3, r1
    2024:	f022 52fc 	bic.w	r2, r2, #528482304	; 0x1f800000
    2028:	f000 51fc 	and.w	r1, r0, #528482304	; 0x1f800000
    202c:	f010 4f80 	tst.w	r0, #1073741824	; 0x40000000
    2030:	ea42 0201 	orr.w	r2, r2, r1
    2034:	d008      	beq.n	2048 <SysCtlClockSet+0xd0>
    2036:	4918      	ldr	r1, [pc, #96]	; (2098 <SysCtlClockSet+0x120>)
    2038:	f422 0280 	bic.w	r2, r2, #4194304	; 0x400000
    203c:	ea00 0101 	and.w	r1, r0, r1
    2040:	f443 0380 	orr.w	r3, r3, #4194304	; 0x400000
    2044:	430a      	orrs	r2, r1
    2046:	e001      	b.n	204c <SysCtlClockSet+0xd4>
    2048:	f022 4280 	bic.w	r2, r2, #1073741824	; 0x40000000
    204c:	f410 6f00 	tst.w	r0, #2048	; 0x800
    2050:	d10c      	bne.n	206c <SysCtlClockSet+0xf4>
    2052:	f44f 4100 	mov.w	r1, #32768	; 0x8000
    2056:	4811      	ldr	r0, [pc, #68]	; (209c <SysCtlClockSet+0x124>)
    2058:	6800      	ldr	r0, [r0, #0]
    205a:	f010 0f01 	tst.w	r0, #1
    205e:	d101      	bne.n	2064 <SysCtlClockSet+0xec>
    2060:	3901      	subs	r1, #1
    2062:	d1f8      	bne.n	2056 <SysCtlClockSet+0xde>
    2064:	f423 6300 	bic.w	r3, r3, #2048	; 0x800
    2068:	f422 6200 	bic.w	r2, r2, #2048	; 0x800
    206c:	4904      	ldr	r1, [pc, #16]	; (2080 <SysCtlClockSet+0x108>)
    206e:	600b      	str	r3, [r1, #0]
    2070:	4b04      	ldr	r3, [pc, #16]	; (2084 <SysCtlClockSet+0x10c>)
    2072:	2010      	movs	r0, #16
    2074:	601a      	str	r2, [r3, #0]
    2076:	e8bd 40f0 	ldmia.w	sp!, {r4, r5, r6, r7, lr}
    207a:	f7ff be0b 	b.w	1c94 <SysCtlDelay>
    207e:	bdf0      	pop	{r4, r5, r6, r7, pc}
    2080:	400fe060 	.word	0x400fe060
    2084:	400fe070 	.word	0x400fe070
    2088:	400fe058 	.word	0x400fe058
    208c:	400fe050 	.word	0x400fe050
    2090:	80000030 	.word	0x80000030
    2094:	07c00001 	.word	0x07c00001
    2098:	40400000 	.word	0x40400000
    209c:	400fe168 	.word	0x400fe168

000020a0 <SysCtlClockGet>:
    20a0:	4b49      	ldr	r3, [pc, #292]	; (21c8 <SysCtlClockGet+0x128>)
    20a2:	6819      	ldr	r1, [r3, #0]
    20a4:	691a      	ldr	r2, [r3, #16]
    20a6:	2a00      	cmp	r2, #0
    20a8:	bfb4      	ite	lt
    20aa:	f002 0370 	andlt.w	r3, r2, #112	; 0x70
    20ae:	f001 0330 	andge.w	r3, r1, #48	; 0x30
    20b2:	2b20      	cmp	r3, #32
    20b4:	b530      	push	{r4, r5, lr}
    20b6:	d019      	beq.n	20ec <SysCtlClockGet+0x4c>
    20b8:	d804      	bhi.n	20c4 <SysCtlClockGet+0x24>
    20ba:	b153      	cbz	r3, 20d2 <SysCtlClockGet+0x32>
    20bc:	2b10      	cmp	r3, #16
    20be:	f040 8081 	bne.w	21c4 <SysCtlClockGet+0x124>
    20c2:	e004      	b.n	20ce <SysCtlClockGet+0x2e>
    20c4:	2b30      	cmp	r3, #48	; 0x30
    20c6:	d00b      	beq.n	20e0 <SysCtlClockGet+0x40>
    20c8:	2b70      	cmp	r3, #112	; 0x70
    20ca:	d17b      	bne.n	21c4 <SysCtlClockGet+0x124>
    20cc:	e00b      	b.n	20e6 <SysCtlClockGet+0x46>
    20ce:	4b3f      	ldr	r3, [pc, #252]	; (21cc <SysCtlClockGet+0x12c>)
    20d0:	e00d      	b.n	20ee <SysCtlClockGet+0x4e>
    20d2:	f401 60f8 	and.w	r0, r1, #1984	; 0x7c0
    20d6:	0980      	lsrs	r0, r0, #6
    20d8:	4b3d      	ldr	r3, [pc, #244]	; (21d0 <SysCtlClockGet+0x130>)
    20da:	f853 3020 	ldr.w	r3, [r3, r0, lsl #2]
    20de:	e006      	b.n	20ee <SysCtlClockGet+0x4e>
    20e0:	f247 5330 	movw	r3, #30000	; 0x7530
    20e4:	e003      	b.n	20ee <SysCtlClockGet+0x4e>
    20e6:	f44f 4300 	mov.w	r3, #32768	; 0x8000
    20ea:	e000      	b.n	20ee <SysCtlClockGet+0x4e>
    20ec:	4b39      	ldr	r3, [pc, #228]	; (21d4 <SysCtlClockGet+0x134>)
    20ee:	2a00      	cmp	r2, #0
    20f0:	da02      	bge.n	20f8 <SysCtlClockGet+0x58>
    20f2:	f412 6f00 	tst.w	r2, #2048	; 0x800
    20f6:	e001      	b.n	20fc <SysCtlClockGet+0x5c>
    20f8:	f411 6f00 	tst.w	r1, #2048	; 0x800
    20fc:	d13d      	bne.n	217a <SysCtlClockGet+0xda>
    20fe:	4836      	ldr	r0, [pc, #216]	; (21d8 <SysCtlClockGet+0x138>)
    2100:	6805      	ldr	r5, [r0, #0]
    2102:	3004      	adds	r0, #4
    2104:	f441 0180 	orr.w	r1, r1, #4194304	; 0x400000
    2108:	6800      	ldr	r0, [r0, #0]
    210a:	f000 041f 	and.w	r4, r0, #31
    210e:	f400 50f8 	and.w	r0, r0, #7936	; 0x1f00
    2112:	3401      	adds	r4, #1
    2114:	0a00      	lsrs	r0, r0, #8
    2116:	0064      	lsls	r4, r4, #1
    2118:	3001      	adds	r0, #1
    211a:	4360      	muls	r0, r4
    211c:	4c2f      	ldr	r4, [pc, #188]	; (21dc <SysCtlClockGet+0x13c>)
    211e:	ea05 0404 	and.w	r4, r5, r4
    2122:	fbb3 f3f0 	udiv	r3, r3, r0
    2126:	0aa4      	lsrs	r4, r4, #10
    2128:	435c      	muls	r4, r3
    212a:	05a8      	lsls	r0, r5, #22
    212c:	0d80      	lsrs	r0, r0, #22
    212e:	0aa4      	lsrs	r4, r4, #10
    2130:	fb00 4303 	mla	r3, r0, r3, r4
    2134:	482a      	ldr	r0, [pc, #168]	; (21e0 <SysCtlClockGet+0x140>)
    2136:	6800      	ldr	r0, [r0, #0]
    2138:	f400 4070 	and.w	r0, r0, #61440	; 0xf000
    213c:	f5b0 5f40 	cmp.w	r0, #12288	; 0x3000
    2140:	d013      	beq.n	216a <SysCtlClockGet+0xca>
    2142:	d806      	bhi.n	2152 <SysCtlClockGet+0xb2>
    2144:	f5b0 5f80 	cmp.w	r0, #4096	; 0x1000
    2148:	d01a      	beq.n	2180 <SysCtlClockGet+0xe0>
    214a:	f5b0 5f00 	cmp.w	r0, #8192	; 0x2000
    214e:	d114      	bne.n	217a <SysCtlClockGet+0xda>
    2150:	e009      	b.n	2166 <SysCtlClockGet+0xc6>
    2152:	f5b0 4fe0 	cmp.w	r0, #28672	; 0x7000
    2156:	d00c      	beq.n	2172 <SysCtlClockGet+0xd2>
    2158:	f5b0 4f10 	cmp.w	r0, #36864	; 0x9000
    215c:	d00b      	beq.n	2176 <SysCtlClockGet+0xd6>
    215e:	f5b0 4f80 	cmp.w	r0, #16384	; 0x4000
    2162:	d10a      	bne.n	217a <SysCtlClockGet+0xda>
    2164:	e003      	b.n	216e <SysCtlClockGet+0xce>
    2166:	481f      	ldr	r0, [pc, #124]	; (21e4 <SysCtlClockGet+0x144>)
    2168:	e00b      	b.n	2182 <SysCtlClockGet+0xe2>
    216a:	481f      	ldr	r0, [pc, #124]	; (21e8 <SysCtlClockGet+0x148>)
    216c:	e009      	b.n	2182 <SysCtlClockGet+0xe2>
    216e:	481f      	ldr	r0, [pc, #124]	; (21ec <SysCtlClockGet+0x14c>)
    2170:	e007      	b.n	2182 <SysCtlClockGet+0xe2>
    2172:	481f      	ldr	r0, [pc, #124]	; (21f0 <SysCtlClockGet+0x150>)
    2174:	e005      	b.n	2182 <SysCtlClockGet+0xe2>
    2176:	481f      	ldr	r0, [pc, #124]	; (21f4 <SysCtlClockGet+0x154>)
    2178:	e003      	b.n	2182 <SysCtlClockGet+0xe2>
    217a:	f04f 30ff 	mov.w	r0, #4294967295	; 0xffffffff
    217e:	e000      	b.n	2182 <SysCtlClockGet+0xe2>
    2180:	481d      	ldr	r0, [pc, #116]	; (21f8 <SysCtlClockGet+0x158>)
    2182:	f411 0f80 	tst.w	r1, #4194304	; 0x400000
    2186:	d019      	beq.n	21bc <SysCtlClockGet+0x11c>
    2188:	2a00      	cmp	r2, #0
    218a:	da11      	bge.n	21b0 <SysCtlClockGet+0x110>
    218c:	f012 4f80 	tst.w	r2, #1073741824	; 0x40000000
    2190:	d007      	beq.n	21a2 <SysCtlClockGet+0x102>
    2192:	f412 6f00 	tst.w	r2, #2048	; 0x800
    2196:	d104      	bne.n	21a2 <SysCtlClockGet+0x102>
    2198:	f002 52fe 	and.w	r2, r2, #532676608	; 0x1fc00000
    219c:	005b      	lsls	r3, r3, #1
    219e:	0d92      	lsrs	r2, r2, #22
    21a0:	e002      	b.n	21a8 <SysCtlClockGet+0x108>
    21a2:	f002 52fc 	and.w	r2, r2, #528482304	; 0x1f800000
    21a6:	0dd2      	lsrs	r2, r2, #23
    21a8:	3201      	adds	r2, #1
    21aa:	fbb3 f3f2 	udiv	r3, r3, r2
    21ae:	e005      	b.n	21bc <SysCtlClockGet+0x11c>
    21b0:	f001 61f0 	and.w	r1, r1, #125829120	; 0x7800000
    21b4:	0dc9      	lsrs	r1, r1, #23
    21b6:	3101      	adds	r1, #1
    21b8:	fbb3 f3f1 	udiv	r3, r3, r1
    21bc:	4283      	cmp	r3, r0
    21be:	bf38      	it	cc
    21c0:	4618      	movcc	r0, r3
    21c2:	bd30      	pop	{r4, r5, pc}
    21c4:	2000      	movs	r0, #0
    21c6:	bd30      	pop	{r4, r5, pc}
    21c8:	400fe060 	.word	0x400fe060
    21cc:	00f42400 	.word	0x00f42400
    21d0:	00002e84 	.word	0x00002e84
    21d4:	003d0900 	.word	0x003d0900
    21d8:	400fe160 	.word	0x400fe160
    21dc:	000ffc00 	.word	0x000ffc00
    21e0:	400fe010 	.word	0x400fe010
    21e4:	03f940aa 	.word	0x03f940aa
    21e8:	02faf080 	.word	0x02faf080
    21ec:	02625a00 	.word	0x02625a00
    21f0:	017d7840 	.word	0x017d7840
    21f4:	01312d00 	.word	0x01312d00
    21f8:	04c4b400 	.word	0x04c4b400

000021fc <SysCtlDeepSleepClockSet>:
    21fc:	4b01      	ldr	r3, [pc, #4]	; (2204 <SysCtlDeepSleepClockSet+0x8>)
    21fe:	6018      	str	r0, [r3, #0]
    2200:	4770      	bx	lr
    2202:	bf00      	nop
    2204:	400fe144 	.word	0x400fe144

00002208 <SysCtlDeepSleepClockConfigSet>:
    2208:	4b15      	ldr	r3, [pc, #84]	; (2260 <SysCtlDeepSleepClockConfigSet+0x58>)
    220a:	681a      	ldr	r2, [r3, #0]
    220c:	4b15      	ldr	r3, [pc, #84]	; (2264 <SysCtlDeepSleepClockConfigSet+0x5c>)
    220e:	ea02 0303 	and.w	r3, r2, r3
    2212:	4a15      	ldr	r2, [pc, #84]	; (2268 <SysCtlDeepSleepClockConfigSet+0x60>)
    2214:	4293      	cmp	r3, r2
    2216:	f100 30ff 	add.w	r0, r0, #4294967295	; 0xffffffff
    221a:	d104      	bne.n	2226 <SysCtlDeepSleepClockConfigSet+0x1e>
    221c:	f021 51fc 	bic.w	r1, r1, #528482304	; 0x1f800000
    2220:	ea41 50c0 	orr.w	r0, r1, r0, lsl #23
    2224:	e018      	b.n	2258 <SysCtlDeepSleepClockConfigSet+0x50>
    2226:	f001 0370 	and.w	r3, r1, #112	; 0x70
    222a:	2b30      	cmp	r3, #48	; 0x30
    222c:	d005      	beq.n	223a <SysCtlDeepSleepClockConfigSet+0x32>
    222e:	2b70      	cmp	r3, #112	; 0x70
    2230:	d006      	beq.n	2240 <SysCtlDeepSleepClockConfigSet+0x38>
    2232:	b93b      	cbnz	r3, 2244 <SysCtlDeepSleepClockConfigSet+0x3c>
    2234:	f440 1040 	orr.w	r0, r0, #3145728	; 0x300000
    2238:	e004      	b.n	2244 <SysCtlDeepSleepClockConfigSet+0x3c>
    223a:	f440 1000 	orr.w	r0, r0, #2097152	; 0x200000
    223e:	e001      	b.n	2244 <SysCtlDeepSleepClockConfigSet+0x3c>
    2240:	f440 0080 	orr.w	r0, r0, #4194304	; 0x400000
    2244:	f011 0f02 	tst.w	r1, #2
    2248:	bf18      	it	ne
    224a:	f040 4000 	orrne.w	r0, r0, #2147483648	; 0x80000000
    224e:	f011 4f80 	tst.w	r1, #1073741824	; 0x40000000
    2252:	bf18      	it	ne
    2254:	f040 4080 	orrne.w	r0, r0, #1073741824	; 0x40000000
    2258:	4b04      	ldr	r3, [pc, #16]	; (226c <SysCtlDeepSleepClockConfigSet+0x64>)
    225a:	6018      	str	r0, [r3, #0]
    225c:	4770      	bx	lr
    225e:	bf00      	nop
    2260:	400fe000 	.word	0x400fe000
    2264:	70ff0000 	.word	0x70ff0000
    2268:	10050000 	.word	0x10050000
    226c:	400fe144 	.word	0x400fe144

00002270 <SysCtlPWMClockSet>:
    2270:	4b03      	ldr	r3, [pc, #12]	; (2280 <SysCtlPWMClockSet+0x10>)
    2272:	681a      	ldr	r2, [r3, #0]
    2274:	f422 12f0 	bic.w	r2, r2, #1966080	; 0x1e0000
    2278:	ea40 0202 	orr.w	r2, r0, r2
    227c:	601a      	str	r2, [r3, #0]
    227e:	4770      	bx	lr
    2280:	400fe060 	.word	0x400fe060

00002284 <SysCtlPWMClockGet>:
    2284:	4b04      	ldr	r3, [pc, #16]	; (2298 <SysCtlPWMClockGet+0x14>)
    2286:	6818      	ldr	r0, [r3, #0]
    2288:	f410 1080 	ands.w	r0, r0, #1048576	; 0x100000
    228c:	bf1c      	itt	ne
    228e:	6818      	ldrne	r0, [r3, #0]
    2290:	f400 10f0 	andne.w	r0, r0, #1966080	; 0x1e0000
    2294:	4770      	bx	lr
    2296:	bf00      	nop
    2298:	400fe060 	.word	0x400fe060

0000229c <SysCtlGPIOAHBEnable>:
    229c:	4b05      	ldr	r3, [pc, #20]	; (22b4 <SysCtlGPIOAHBEnable+0x18>)
    229e:	f000 000f 	and.w	r0, r0, #15
    22a2:	681a      	ldr	r2, [r3, #0]
    22a4:	2101      	movs	r1, #1
    22a6:	fa11 f000 	lsls.w	r0, r1, r0
    22aa:	ea40 0202 	orr.w	r2, r0, r2
    22ae:	601a      	str	r2, [r3, #0]
    22b0:	4770      	bx	lr
    22b2:	bf00      	nop
    22b4:	400fe06c 	.word	0x400fe06c

000022b8 <SysCtlGPIOAHBDisable>:
    22b8:	4b05      	ldr	r3, [pc, #20]	; (22d0 <SysCtlGPIOAHBDisable+0x18>)
    22ba:	f000 000f 	and.w	r0, r0, #15
    22be:	681a      	ldr	r2, [r3, #0]
    22c0:	2101      	movs	r1, #1
    22c2:	fa11 f000 	lsls.w	r0, r1, r0
    22c6:	ea22 0200 	bic.w	r2, r2, r0
    22ca:	601a      	str	r2, [r3, #0]
    22cc:	4770      	bx	lr
    22ce:	bf00      	nop
    22d0:	400fe06c 	.word	0x400fe06c

000022d4 <SysCtlUSBPLLEnable>:
    22d4:	4b02      	ldr	r3, [pc, #8]	; (22e0 <SysCtlUSBPLLEnable+0xc>)
    22d6:	681a      	ldr	r2, [r3, #0]
    22d8:	f422 4280 	bic.w	r2, r2, #16384	; 0x4000
    22dc:	601a      	str	r2, [r3, #0]
    22de:	4770      	bx	lr
    22e0:	400fe070 	.word	0x400fe070

000022e4 <SysCtlUSBPLLDisable>:
    22e4:	4b02      	ldr	r3, [pc, #8]	; (22f0 <SysCtlUSBPLLDisable+0xc>)
    22e6:	681a      	ldr	r2, [r3, #0]
    22e8:	f442 4280 	orr.w	r2, r2, #16384	; 0x4000
    22ec:	601a      	str	r2, [r3, #0]
    22ee:	4770      	bx	lr
    22f0:	400fe070 	.word	0x400fe070

000022f4 <SysCtlVoltageEventConfig>:
    22f4:	4b01      	ldr	r3, [pc, #4]	; (22fc <SysCtlVoltageEventConfig+0x8>)
    22f6:	6018      	str	r0, [r3, #0]
    22f8:	4770      	bx	lr
    22fa:	bf00      	nop
    22fc:	400fe038 	.word	0x400fe038

00002300 <SysCtlVoltageEventStatus>:
    2300:	4b01      	ldr	r3, [pc, #4]	; (2308 <SysCtlVoltageEventStatus+0x8>)
    2302:	6818      	ldr	r0, [r3, #0]
    2304:	4770      	bx	lr
    2306:	bf00      	nop
    2308:	400fe060 	.word	0x400fe060

0000230c <SysCtlVoltageEventClear>:
    230c:	4b02      	ldr	r3, [pc, #8]	; (2318 <SysCtlVoltageEventClear+0xc>)
    230e:	681a      	ldr	r2, [r3, #0]
    2310:	ea40 0202 	orr.w	r2, r0, r2
    2314:	601a      	str	r2, [r3, #0]
    2316:	4770      	bx	lr
    2318:	400fe060 	.word	0x400fe060

0000231c <SysCtlNMIStatus>:
    231c:	4b01      	ldr	r3, [pc, #4]	; (2324 <SysCtlNMIStatus+0x8>)
    231e:	6818      	ldr	r0, [r3, #0]
    2320:	4770      	bx	lr
    2322:	bf00      	nop
    2324:	400fe064 	.word	0x400fe064

00002328 <SysCtlNMIClear>:
    2328:	4b02      	ldr	r3, [pc, #8]	; (2334 <SysCtlNMIClear+0xc>)
    232a:	681a      	ldr	r2, [r3, #0]
    232c:	ea22 0200 	bic.w	r2, r2, r0
    2330:	601a      	str	r2, [r3, #0]
    2332:	4770      	bx	lr
    2334:	400fe064 	.word	0x400fe064

00002338 <SysCtlClockOutConfig>:
    2338:	3901      	subs	r1, #1
    233a:	f001 01ff 	and.w	r1, r1, #255	; 0xff
    233e:	4b02      	ldr	r3, [pc, #8]	; (2348 <SysCtlClockOutConfig+0x10>)
    2340:	4301      	orrs	r1, r0
    2342:	6019      	str	r1, [r3, #0]
    2344:	4770      	bx	lr
    2346:	bf00      	nop
    2348:	400fe148 	.word	0x400fe148

0000234c <SysCtlAltClkConfig>:
    234c:	4b01      	ldr	r3, [pc, #4]	; (2354 <SysCtlAltClkConfig+0x8>)
    234e:	6018      	str	r0, [r3, #0]
    2350:	4770      	bx	lr
    2352:	bf00      	nop
    2354:	400fe138 	.word	0x400fe138

00002358 <_TimerIntNumberGet>:
    2358:	4b0f      	ldr	r3, [pc, #60]	; (2398 <_TimerIntNumberGet+0x40>)
    235a:	681a      	ldr	r2, [r3, #0]
    235c:	4b0f      	ldr	r3, [pc, #60]	; (239c <_TimerIntNumberGet+0x44>)
    235e:	ea02 0303 	and.w	r3, r2, r3
    2362:	4a0f      	ldr	r2, [pc, #60]	; (23a0 <_TimerIntNumberGet+0x48>)
    2364:	4293      	cmp	r3, r2
    2366:	4a0f      	ldr	r2, [pc, #60]	; (23a4 <_TimerIntNumberGet+0x4c>)
    2368:	4b0f      	ldr	r3, [pc, #60]	; (23a8 <_TimerIntNumberGet+0x50>)
    236a:	b530      	push	{r4, r5, lr}
    236c:	bf08      	it	eq
    236e:	4613      	moveq	r3, r2
    2370:	bf0c      	ite	eq
    2372:	2408      	moveq	r4, #8
    2374:	240c      	movne	r4, #12
    2376:	2200      	movs	r2, #0
    2378:	681d      	ldr	r5, [r3, #0]
    237a:	4285      	cmp	r5, r0
    237c:	d105      	bne.n	238a <_TimerIntNumberGet+0x32>
    237e:	f5b1 4f7f 	cmp.w	r1, #65280	; 0xff00
    2382:	6858      	ldr	r0, [r3, #4]
    2384:	d106      	bne.n	2394 <_TimerIntNumberGet+0x3c>
    2386:	3001      	adds	r0, #1
    2388:	bd30      	pop	{r4, r5, pc}
    238a:	3201      	adds	r2, #1
    238c:	3308      	adds	r3, #8
    238e:	42a2      	cmp	r2, r4
    2390:	d3f2      	bcc.n	2378 <_TimerIntNumberGet+0x20>
    2392:	2000      	movs	r0, #0
    2394:	bd30      	pop	{r4, r5, pc}
    2396:	bf00      	nop
    2398:	400fe000 	.word	0x400fe000
    239c:	70ff0000 	.word	0x70ff0000
    23a0:	100a0000 	.word	0x100a0000
    23a4:	00002ef0 	.word	0x00002ef0
    23a8:	00002f30 	.word	0x00002f30

000023ac <TimerEnable>:
    23ac:	68c2      	ldr	r2, [r0, #12]
    23ae:	f240 1301 	movw	r3, #257	; 0x101
    23b2:	ea01 0303 	and.w	r3, r1, r3
    23b6:	ea42 0303 	orr.w	r3, r2, r3
    23ba:	60c3      	str	r3, [r0, #12]
    23bc:	4770      	bx	lr

000023be <TimerDisable>:
    23be:	68c2      	ldr	r2, [r0, #12]
    23c0:	f240 1301 	movw	r3, #257	; 0x101
    23c4:	ea01 0303 	and.w	r3, r1, r3
    23c8:	ea22 0303 	bic.w	r3, r2, r3
    23cc:	60c3      	str	r3, [r0, #12]
    23ce:	4770      	bx	lr

000023d0 <TimerConfigure>:
    23d0:	68c3      	ldr	r3, [r0, #12]
    23d2:	f423 7380 	bic.w	r3, r3, #256	; 0x100
    23d6:	f023 0301 	bic.w	r3, r3, #1
    23da:	60c3      	str	r3, [r0, #12]
    23dc:	0e0b      	lsrs	r3, r1, #24
    23de:	6003      	str	r3, [r0, #0]
    23e0:	4b11      	ldr	r3, [pc, #68]	; (2428 <TimerConfigure+0x58>)
    23e2:	681a      	ldr	r2, [r3, #0]
    23e4:	4b11      	ldr	r3, [pc, #68]	; (242c <TimerConfigure+0x5c>)
    23e6:	ea02 0303 	and.w	r3, r2, r3
    23ea:	4a11      	ldr	r2, [pc, #68]	; (2430 <TimerConfigure+0x60>)
    23ec:	4293      	cmp	r3, r2
    23ee:	f001 03ff 	and.w	r3, r1, #255	; 0xff
    23f2:	d10e      	bne.n	2412 <TimerConfigure+0x42>
    23f4:	f401 2270 	and.w	r2, r1, #983040	; 0xf0000
    23f8:	f443 7300 	orr.w	r3, r3, #512	; 0x200
    23fc:	ea43 1312 	orr.w	r3, r3, r2, lsr #4
    2400:	6043      	str	r3, [r0, #4]
    2402:	f401 0370 	and.w	r3, r1, #15728640	; 0xf00000
    2406:	0a09      	lsrs	r1, r1, #8
    2408:	f001 01ff 	and.w	r1, r1, #255	; 0xff
    240c:	ea41 2113 	orr.w	r1, r1, r3, lsr #8
    2410:	e005      	b.n	241e <TimerConfigure+0x4e>
    2412:	f443 7300 	orr.w	r3, r3, #512	; 0x200
    2416:	0a09      	lsrs	r1, r1, #8
    2418:	6043      	str	r3, [r0, #4]
    241a:	f001 01ff 	and.w	r1, r1, #255	; 0xff
    241e:	f441 7100 	orr.w	r1, r1, #512	; 0x200
    2422:	6081      	str	r1, [r0, #8]
    2424:	4770      	bx	lr
    2426:	bf00      	nop
    2428:	400fe000 	.word	0x400fe000
    242c:	70ff0000 	.word	0x70ff0000
    2430:	100a0000 	.word	0x100a0000

00002434 <TimerControlLevel>:
    2434:	f244 0340 	movw	r3, #16448	; 0x4040
    2438:	ea01 0303 	and.w	r3, r1, r3
    243c:	f100 010c 	add.w	r1, r0, #12
    2440:	b11a      	cbz	r2, 244a <TimerControlLevel+0x16>
    2442:	68c2      	ldr	r2, [r0, #12]
    2444:	ea42 0303 	orr.w	r3, r2, r3
    2448:	e002      	b.n	2450 <TimerControlLevel+0x1c>
    244a:	68c2      	ldr	r2, [r0, #12]
    244c:	ea22 0303 	bic.w	r3, r2, r3
    2450:	600b      	str	r3, [r1, #0]
    2452:	4770      	bx	lr

00002454 <TimerControlTrigger>:
    2454:	4b13      	ldr	r3, [pc, #76]	; (24a4 <TimerControlTrigger+0x50>)
    2456:	b530      	push	{r4, r5, lr}
    2458:	681c      	ldr	r4, [r3, #0]
    245a:	4b13      	ldr	r3, [pc, #76]	; (24a8 <TimerControlTrigger+0x54>)
    245c:	ea04 0303 	and.w	r3, r4, r3
    2460:	4c12      	ldr	r4, [pc, #72]	; (24ac <TimerControlTrigger+0x58>)
    2462:	42a3      	cmp	r3, r4
    2464:	d10e      	bne.n	2484 <TimerControlTrigger+0x30>
    2466:	f240 1301 	movw	r3, #257	; 0x101
    246a:	ea01 0303 	and.w	r3, r1, r3
    246e:	f100 0470 	add.w	r4, r0, #112	; 0x70
    2472:	b11a      	cbz	r2, 247c <TimerControlTrigger+0x28>
    2474:	6f05      	ldr	r5, [r0, #112]	; 0x70
    2476:	ea45 0303 	orr.w	r3, r5, r3
    247a:	e002      	b.n	2482 <TimerControlTrigger+0x2e>
    247c:	6f05      	ldr	r5, [r0, #112]	; 0x70
    247e:	ea25 0303 	bic.w	r3, r5, r3
    2482:	6023      	str	r3, [r4, #0]
    2484:	f242 0320 	movw	r3, #8224	; 0x2020
    2488:	ea01 0303 	and.w	r3, r1, r3
    248c:	f100 010c 	add.w	r1, r0, #12
    2490:	b11a      	cbz	r2, 249a <TimerControlTrigger+0x46>
    2492:	68c2      	ldr	r2, [r0, #12]
    2494:	ea42 0303 	orr.w	r3, r2, r3
    2498:	e002      	b.n	24a0 <TimerControlTrigger+0x4c>
    249a:	68c2      	ldr	r2, [r0, #12]
    249c:	ea22 0303 	bic.w	r3, r2, r3
    24a0:	600b      	str	r3, [r1, #0]
    24a2:	bd30      	pop	{r4, r5, pc}
    24a4:	400fe000 	.word	0x400fe000
    24a8:	70ff0000 	.word	0x70ff0000
    24ac:	100a0000 	.word	0x100a0000

000024b0 <TimerControlEvent>:
    24b0:	f640 430c 	movw	r3, #3084	; 0xc0c
    24b4:	ea01 0303 	and.w	r3, r1, r3
    24b8:	68c1      	ldr	r1, [r0, #12]
    24ba:	ea21 0103 	bic.w	r1, r1, r3
    24be:	ea02 0303 	and.w	r3, r2, r3
    24c2:	4319      	orrs	r1, r3
    24c4:	60c1      	str	r1, [r0, #12]
    24c6:	4770      	bx	lr

000024c8 <TimerControlStall>:
    24c8:	f240 2302 	movw	r3, #514	; 0x202
    24cc:	ea01 0303 	and.w	r3, r1, r3
    24d0:	f100 010c 	add.w	r1, r0, #12
    24d4:	b11a      	cbz	r2, 24de <TimerControlStall+0x16>
    24d6:	68c2      	ldr	r2, [r0, #12]
    24d8:	ea42 0303 	orr.w	r3, r2, r3
    24dc:	e002      	b.n	24e4 <TimerControlStall+0x1c>
    24de:	68c2      	ldr	r2, [r0, #12]
    24e0:	ea22 0303 	bic.w	r3, r2, r3
    24e4:	600b      	str	r3, [r1, #0]
    24e6:	4770      	bx	lr

000024e8 <TimerControlWaitOnTrigger>:
    24e8:	f011 0fff 	tst.w	r1, #255	; 0xff
    24ec:	d008      	beq.n	2500 <TimerControlWaitOnTrigger+0x18>
    24ee:	b11a      	cbz	r2, 24f8 <TimerControlWaitOnTrigger+0x10>
    24f0:	6843      	ldr	r3, [r0, #4]
    24f2:	f043 0340 	orr.w	r3, r3, #64	; 0x40
    24f6:	e002      	b.n	24fe <TimerControlWaitOnTrigger+0x16>
    24f8:	6843      	ldr	r3, [r0, #4]
    24fa:	f023 0340 	bic.w	r3, r3, #64	; 0x40
    24fe:	6043      	str	r3, [r0, #4]
    2500:	f411 4f7f 	tst.w	r1, #65280	; 0xff00
    2504:	d009      	beq.n	251a <TimerControlWaitOnTrigger+0x32>
    2506:	b122      	cbz	r2, 2512 <TimerControlWaitOnTrigger+0x2a>
    2508:	6883      	ldr	r3, [r0, #8]
    250a:	f043 0340 	orr.w	r3, r3, #64	; 0x40
    250e:	6083      	str	r3, [r0, #8]
    2510:	4770      	bx	lr
    2512:	6883      	ldr	r3, [r0, #8]
    2514:	f023 0340 	bic.w	r3, r3, #64	; 0x40
    2518:	6083      	str	r3, [r0, #8]
    251a:	4770      	bx	lr

0000251c <TimerRTCEnable>:
    251c:	68c3      	ldr	r3, [r0, #12]
    251e:	f043 0310 	orr.w	r3, r3, #16
    2522:	60c3      	str	r3, [r0, #12]
    2524:	4770      	bx	lr

00002526 <TimerRTCDisable>:
    2526:	68c3      	ldr	r3, [r0, #12]
    2528:	f023 0310 	bic.w	r3, r3, #16
    252c:	60c3      	str	r3, [r0, #12]
    252e:	4770      	bx	lr

00002530 <TimerClockSourceSet>:
    2530:	f8c0 1fc8 	str.w	r1, [r0, #4040]	; 0xfc8
    2534:	4770      	bx	lr

00002536 <TimerClockSourceGet>:
    2536:	f8d0 0fc8 	ldr.w	r0, [r0, #4040]	; 0xfc8
    253a:	4770      	bx	lr

0000253c <TimerPrescaleSet>:
    253c:	f011 0fff 	tst.w	r1, #255	; 0xff
    2540:	bf18      	it	ne
    2542:	6382      	strne	r2, [r0, #56]	; 0x38
    2544:	f411 4f7f 	tst.w	r1, #65280	; 0xff00
    2548:	bf18      	it	ne
    254a:	63c2      	strne	r2, [r0, #60]	; 0x3c
    254c:	4770      	bx	lr

0000254e <TimerPrescaleGet>:
    254e:	29ff      	cmp	r1, #255	; 0xff
    2550:	bf0c      	ite	eq
    2552:	6b80      	ldreq	r0, [r0, #56]	; 0x38
    2554:	6bc0      	ldrne	r0, [r0, #60]	; 0x3c
    2556:	4770      	bx	lr

00002558 <TimerPrescaleMatchSet>:
    2558:	f011 0fff 	tst.w	r1, #255	; 0xff
    255c:	bf18      	it	ne
    255e:	6402      	strne	r2, [r0, #64]	; 0x40
    2560:	f411 4f7f 	tst.w	r1, #65280	; 0xff00
    2564:	bf18      	it	ne
    2566:	6442      	strne	r2, [r0, #68]	; 0x44
    2568:	4770      	bx	lr

0000256a <TimerPrescaleMatchGet>:
    256a:	29ff      	cmp	r1, #255	; 0xff
    256c:	bf0c      	ite	eq
    256e:	6c00      	ldreq	r0, [r0, #64]	; 0x40
    2570:	6c40      	ldrne	r0, [r0, #68]	; 0x44
    2572:	4770      	bx	lr

00002574 <TimerLoadSet>:
    2574:	f011 0fff 	tst.w	r1, #255	; 0xff
    2578:	bf18      	it	ne
    257a:	6282      	strne	r2, [r0, #40]	; 0x28
    257c:	f411 4f7f 	tst.w	r1, #65280	; 0xff00
    2580:	bf18      	it	ne
    2582:	62c2      	strne	r2, [r0, #44]	; 0x2c
    2584:	4770      	bx	lr

00002586 <TimerLoadGet>:
    2586:	29ff      	cmp	r1, #255	; 0xff
    2588:	bf0c      	ite	eq
    258a:	6a80      	ldreq	r0, [r0, #40]	; 0x28
    258c:	6ac0      	ldrne	r0, [r0, #44]	; 0x2c
    258e:	4770      	bx	lr

00002590 <TimerLoadSet64>:
    2590:	62c3      	str	r3, [r0, #44]	; 0x2c
    2592:	6282      	str	r2, [r0, #40]	; 0x28
    2594:	4770      	bx	lr

00002596 <TimerLoadGet64>:
    2596:	b510      	push	{r4, lr}
    2598:	6ac1      	ldr	r1, [r0, #44]	; 0x2c
    259a:	6a84      	ldr	r4, [r0, #40]	; 0x28
    259c:	6ac3      	ldr	r3, [r0, #44]	; 0x2c
    259e:	4299      	cmp	r1, r3
    25a0:	d1fa      	bne.n	2598 <TimerLoadGet64+0x2>
    25a2:	2200      	movs	r2, #0
    25a4:	4322      	orrs	r2, r4
    25a6:	4610      	mov	r0, r2
    25a8:	bd10      	pop	{r4, pc}

000025aa <TimerValueGet>:
    25aa:	29ff      	cmp	r1, #255	; 0xff
    25ac:	bf0c      	ite	eq
    25ae:	6c80      	ldreq	r0, [r0, #72]	; 0x48
    25b0:	6cc0      	ldrne	r0, [r0, #76]	; 0x4c
    25b2:	4770      	bx	lr

000025b4 <TimerValueGet64>:
    25b4:	b510      	push	{r4, lr}
    25b6:	6cc1      	ldr	r1, [r0, #76]	; 0x4c
    25b8:	6c84      	ldr	r4, [r0, #72]	; 0x48
    25ba:	6cc3      	ldr	r3, [r0, #76]	; 0x4c
    25bc:	4299      	cmp	r1, r3
    25be:	d1fa      	bne.n	25b6 <TimerValueGet64+0x2>
    25c0:	2200      	movs	r2, #0
    25c2:	4322      	orrs	r2, r4
    25c4:	4610      	mov	r0, r2
    25c6:	bd10      	pop	{r4, pc}

000025c8 <TimerMatchSet>:
    25c8:	f011 0fff 	tst.w	r1, #255	; 0xff
    25cc:	bf18      	it	ne
    25ce:	6302      	strne	r2, [r0, #48]	; 0x30
    25d0:	f411 4f7f 	tst.w	r1, #65280	; 0xff00
    25d4:	bf18      	it	ne
    25d6:	6342      	strne	r2, [r0, #52]	; 0x34
    25d8:	4770      	bx	lr

000025da <TimerMatchGet>:
    25da:	29ff      	cmp	r1, #255	; 0xff
    25dc:	bf0c      	ite	eq
    25de:	6b00      	ldreq	r0, [r0, #48]	; 0x30
    25e0:	6b40      	ldrne	r0, [r0, #52]	; 0x34
    25e2:	4770      	bx	lr

000025e4 <TimerMatchSet64>:
    25e4:	6343      	str	r3, [r0, #52]	; 0x34
    25e6:	6302      	str	r2, [r0, #48]	; 0x30
    25e8:	4770      	bx	lr

000025ea <TimerMatchGet64>:
    25ea:	b510      	push	{r4, lr}
    25ec:	6b41      	ldr	r1, [r0, #52]	; 0x34
    25ee:	6b04      	ldr	r4, [r0, #48]	; 0x30
    25f0:	6b43      	ldr	r3, [r0, #52]	; 0x34
    25f2:	4299      	cmp	r1, r3
    25f4:	d1fa      	bne.n	25ec <TimerMatchGet64+0x2>
    25f6:	2200      	movs	r2, #0
    25f8:	4322      	orrs	r2, r4
    25fa:	4610      	mov	r0, r2
    25fc:	bd10      	pop	{r4, pc}

000025fe <TimerIntRegister>:
    25fe:	b570      	push	{r4, r5, r6, lr}
    2600:	4615      	mov	r5, r2
    2602:	f7ff fea9 	bl	2358 <_TimerIntNumberGet>
    2606:	4629      	mov	r1, r5
    2608:	4604      	mov	r4, r0
    260a:	f7fe ff0b 	bl	1424 <IntRegister>
    260e:	4620      	mov	r0, r4
    2610:	e8bd 4070 	ldmia.w	sp!, {r4, r5, r6, lr}
    2614:	f7fe bf6a 	b.w	14ec <IntEnable>

00002618 <TimerIntUnregister>:
    2618:	b510      	push	{r4, lr}
    261a:	f7ff fe9d 	bl	2358 <_TimerIntNumberGet>
    261e:	4604      	mov	r4, r0
    2620:	f7fe ff94 	bl	154c <IntDisable>
    2624:	4620      	mov	r0, r4
    2626:	e8bd 4010 	ldmia.w	sp!, {r4, lr}
    262a:	f7fe bf13 	b.w	1454 <IntUnregister>

0000262e <TimerIntEnable>:
    262e:	6983      	ldr	r3, [r0, #24]
    2630:	430b      	orrs	r3, r1
    2632:	6183      	str	r3, [r0, #24]
    2634:	4770      	bx	lr

00002636 <TimerIntDisable>:
    2636:	6983      	ldr	r3, [r0, #24]
    2638:	ea23 0301 	bic.w	r3, r3, r1
    263c:	6183      	str	r3, [r0, #24]
    263e:	4770      	bx	lr

00002640 <TimerIntStatus>:
    2640:	b109      	cbz	r1, 2646 <TimerIntStatus+0x6>
    2642:	6a00      	ldr	r0, [r0, #32]
    2644:	4770      	bx	lr
    2646:	69c0      	ldr	r0, [r0, #28]
    2648:	4770      	bx	lr

0000264a <TimerIntClear>:
    264a:	6241      	str	r1, [r0, #36]	; 0x24
    264c:	4770      	bx	lr

0000264e <TimerSynchronize>:
    264e:	6101      	str	r1, [r0, #16]
    2650:	4770      	bx	lr

00002652 <TimerADCEventSet>:
    2652:	6701      	str	r1, [r0, #112]	; 0x70
    2654:	4770      	bx	lr

00002656 <TimerADCEventGet>:
    2656:	6f00      	ldr	r0, [r0, #112]	; 0x70
    2658:	4770      	bx	lr

0000265a <TimerDMAEventSet>:
    265a:	66c1      	str	r1, [r0, #108]	; 0x6c
    265c:	4770      	bx	lr

0000265e <TimerDMAEventGet>:
    265e:	6ec0      	ldr	r0, [r0, #108]	; 0x6c
    2660:	4770      	bx	lr

00002662 <TimerUpdateMode>:
    2662:	f001 03ff 	and.w	r3, r1, #255	; 0xff
    2666:	2bff      	cmp	r3, #255	; 0xff
    2668:	d104      	bne.n	2674 <TimerUpdateMode+0x12>
    266a:	6843      	ldr	r3, [r0, #4]
    266c:	f423 63a0 	bic.w	r3, r3, #1280	; 0x500
    2670:	4313      	orrs	r3, r2
    2672:	6043      	str	r3, [r0, #4]
    2674:	f401 417f 	and.w	r1, r1, #65280	; 0xff00
    2678:	f5b1 4f7f 	cmp.w	r1, #65280	; 0xff00
    267c:	d105      	bne.n	268a <TimerUpdateMode+0x28>
    267e:	6883      	ldr	r3, [r0, #8]
    2680:	f423 63a0 	bic.w	r3, r3, #1280	; 0x500
    2684:	ea43 0202 	orr.w	r2, r3, r2
    2688:	6082      	str	r2, [r0, #8]
    268a:	4770      	bx	lr

0000268c <_UARTIntNumberGet>:
    268c:	4b0c      	ldr	r3, [pc, #48]	; (26c0 <_UARTIntNumberGet+0x34>)
    268e:	490d      	ldr	r1, [pc, #52]	; (26c4 <_UARTIntNumberGet+0x38>)
    2690:	681a      	ldr	r2, [r3, #0]
    2692:	4b0d      	ldr	r3, [pc, #52]	; (26c8 <_UARTIntNumberGet+0x3c>)
    2694:	b510      	push	{r4, lr}
    2696:	ea02 0303 	and.w	r3, r2, r3
    269a:	4c0c      	ldr	r4, [pc, #48]	; (26cc <_UARTIntNumberGet+0x40>)
    269c:	4a0c      	ldr	r2, [pc, #48]	; (26d0 <_UARTIntNumberGet+0x44>)
    269e:	42a3      	cmp	r3, r4
    26a0:	bf18      	it	ne
    26a2:	460a      	movne	r2, r1
    26a4:	2300      	movs	r3, #0
    26a6:	58d4      	ldr	r4, [r2, r3]
    26a8:	4284      	cmp	r4, r0
    26aa:	eb02 0103 	add.w	r1, r2, r3
    26ae:	d101      	bne.n	26b4 <_UARTIntNumberGet+0x28>
    26b0:	6848      	ldr	r0, [r1, #4]
    26b2:	bd10      	pop	{r4, pc}
    26b4:	3308      	adds	r3, #8
    26b6:	2b40      	cmp	r3, #64	; 0x40
    26b8:	d1f5      	bne.n	26a6 <_UARTIntNumberGet+0x1a>
    26ba:	2000      	movs	r0, #0
    26bc:	bd10      	pop	{r4, pc}
    26be:	bf00      	nop
    26c0:	400fe000 	.word	0x400fe000
    26c4:	00002f90 	.word	0x00002f90
    26c8:	70ff0000 	.word	0x70ff0000
    26cc:	100a0000 	.word	0x100a0000
    26d0:	00002fd0 	.word	0x00002fd0

000026d4 <UARTParityModeSet>:
    26d4:	6ac3      	ldr	r3, [r0, #44]	; 0x2c
    26d6:	f023 0386 	bic.w	r3, r3, #134	; 0x86
    26da:	430b      	orrs	r3, r1
    26dc:	62c3      	str	r3, [r0, #44]	; 0x2c
    26de:	4770      	bx	lr

000026e0 <UARTParityModeGet>:
    26e0:	6ac0      	ldr	r0, [r0, #44]	; 0x2c
    26e2:	f000 0086 	and.w	r0, r0, #134	; 0x86
    26e6:	4770      	bx	lr

000026e8 <UARTFIFOLevelSet>:
    26e8:	430a      	orrs	r2, r1
    26ea:	6342      	str	r2, [r0, #52]	; 0x34
    26ec:	4770      	bx	lr

000026ee <UARTFIFOLevelGet>:
    26ee:	6b43      	ldr	r3, [r0, #52]	; 0x34
    26f0:	f003 0007 	and.w	r0, r3, #7
    26f4:	f003 0338 	and.w	r3, r3, #56	; 0x38
    26f8:	6008      	str	r0, [r1, #0]
    26fa:	6013      	str	r3, [r2, #0]
    26fc:	4770      	bx	lr

000026fe <UARTConfigGetExpClk>:
    26fe:	b530      	push	{r4, r5, lr}
    2700:	6a45      	ldr	r5, [r0, #36]	; 0x24
    2702:	6a84      	ldr	r4, [r0, #40]	; 0x28
    2704:	01ad      	lsls	r5, r5, #6
    2706:	0089      	lsls	r1, r1, #2
    2708:	192c      	adds	r4, r5, r4
    270a:	fbb1 f4f4 	udiv	r4, r1, r4
    270e:	6014      	str	r4, [r2, #0]
    2710:	6b01      	ldr	r1, [r0, #48]	; 0x30
    2712:	f011 0f20 	tst.w	r1, #32
    2716:	d001      	beq.n	271c <UARTConfigGetExpClk+0x1e>
    2718:	0064      	lsls	r4, r4, #1
    271a:	6014      	str	r4, [r2, #0]
    271c:	6ac2      	ldr	r2, [r0, #44]	; 0x2c
    271e:	f002 02ee 	and.w	r2, r2, #238	; 0xee
    2722:	601a      	str	r2, [r3, #0]
    2724:	bd30      	pop	{r4, r5, pc}

00002726 <UARTEnable>:
    2726:	6ac3      	ldr	r3, [r0, #44]	; 0x2c
    2728:	f043 0310 	orr.w	r3, r3, #16
    272c:	62c3      	str	r3, [r0, #44]	; 0x2c
    272e:	6b03      	ldr	r3, [r0, #48]	; 0x30
    2730:	f443 7340 	orr.w	r3, r3, #768	; 0x300
    2734:	f043 0301 	orr.w	r3, r3, #1
    2738:	6303      	str	r3, [r0, #48]	; 0x30
    273a:	4770      	bx	lr

0000273c <UARTDisable>:
    273c:	6983      	ldr	r3, [r0, #24]
    273e:	f013 0f08 	tst.w	r3, #8
    2742:	d1fb      	bne.n	273c <UARTDisable>
    2744:	6ac3      	ldr	r3, [r0, #44]	; 0x2c
    2746:	f023 0310 	bic.w	r3, r3, #16
    274a:	62c3      	str	r3, [r0, #44]	; 0x2c
    274c:	6b03      	ldr	r3, [r0, #48]	; 0x30
    274e:	f423 7340 	bic.w	r3, r3, #768	; 0x300
    2752:	f023 0301 	bic.w	r3, r3, #1
    2756:	6303      	str	r3, [r0, #48]	; 0x30
    2758:	4770      	bx	lr

0000275a <UARTConfigSetExpClk>:
    275a:	e92d 41f0 	stmdb	sp!, {r4, r5, r6, r7, r8, lr}
    275e:	460d      	mov	r5, r1
    2760:	4616      	mov	r6, r2
    2762:	4604      	mov	r4, r0
    2764:	461f      	mov	r7, r3
    2766:	f7ff ffe9 	bl	273c <UARTDisable>
    276a:	ebb5 1f06 	cmp.w	r5, r6, lsl #4
    276e:	d205      	bcs.n	277c <UARTConfigSetExpClk+0x22>
    2770:	6b23      	ldr	r3, [r4, #48]	; 0x30
    2772:	f043 0320 	orr.w	r3, r3, #32
    2776:	6323      	str	r3, [r4, #48]	; 0x30
    2778:	0876      	lsrs	r6, r6, #1
    277a:	e003      	b.n	2784 <UARTConfigSetExpClk+0x2a>
    277c:	6b23      	ldr	r3, [r4, #48]	; 0x30
    277e:	f023 0320 	bic.w	r3, r3, #32
    2782:	6323      	str	r3, [r4, #48]	; 0x30
    2784:	00ed      	lsls	r5, r5, #3
    2786:	fbb5 f6f6 	udiv	r6, r5, r6
    278a:	3601      	adds	r6, #1
    278c:	0873      	lsrs	r3, r6, #1
    278e:	f003 033f 	and.w	r3, r3, #63	; 0x3f
    2792:	09f6      	lsrs	r6, r6, #7
    2794:	6266      	str	r6, [r4, #36]	; 0x24
    2796:	4620      	mov	r0, r4
    2798:	62a3      	str	r3, [r4, #40]	; 0x28
    279a:	2300      	movs	r3, #0
    279c:	62e7      	str	r7, [r4, #44]	; 0x2c
    279e:	61a3      	str	r3, [r4, #24]
    27a0:	e8bd 41f0 	ldmia.w	sp!, {r4, r5, r6, r7, r8, lr}
    27a4:	f7ff bfbf 	b.w	2726 <UARTEnable>

000027a8 <UARTFIFOEnable>:
    27a8:	6ac3      	ldr	r3, [r0, #44]	; 0x2c
    27aa:	f043 0310 	orr.w	r3, r3, #16
    27ae:	62c3      	str	r3, [r0, #44]	; 0x2c
    27b0:	4770      	bx	lr

000027b2 <UARTFIFODisable>:
    27b2:	6ac3      	ldr	r3, [r0, #44]	; 0x2c
    27b4:	f023 0310 	bic.w	r3, r3, #16
    27b8:	62c3      	str	r3, [r0, #44]	; 0x2c
    27ba:	4770      	bx	lr

000027bc <UARTEnableSIR>:
    27bc:	b119      	cbz	r1, 27c6 <UARTEnableSIR+0xa>
    27be:	6b03      	ldr	r3, [r0, #48]	; 0x30
    27c0:	f043 0306 	orr.w	r3, r3, #6
    27c4:	e002      	b.n	27cc <UARTEnableSIR+0x10>
    27c6:	6b03      	ldr	r3, [r0, #48]	; 0x30
    27c8:	f043 0302 	orr.w	r3, r3, #2
    27cc:	6303      	str	r3, [r0, #48]	; 0x30
    27ce:	4770      	bx	lr

000027d0 <UARTDisableSIR>:
    27d0:	6b03      	ldr	r3, [r0, #48]	; 0x30
    27d2:	f023 0306 	bic.w	r3, r3, #6
    27d6:	6303      	str	r3, [r0, #48]	; 0x30
    27d8:	4770      	bx	lr

000027da <UARTSmartCardEnable>:
    27da:	6ac3      	ldr	r3, [r0, #44]	; 0x2c
    27dc:	f023 03e6 	bic.w	r3, r3, #230	; 0xe6
    27e0:	f043 036e 	orr.w	r3, r3, #110	; 0x6e
    27e4:	62c3      	str	r3, [r0, #44]	; 0x2c
    27e6:	6b03      	ldr	r3, [r0, #48]	; 0x30
    27e8:	f043 0308 	orr.w	r3, r3, #8
    27ec:	6303      	str	r3, [r0, #48]	; 0x30
    27ee:	4770      	bx	lr

000027f0 <UARTSmartCardDisable>:
    27f0:	6b03      	ldr	r3, [r0, #48]	; 0x30
    27f2:	f023 0308 	bic.w	r3, r3, #8
    27f6:	6303      	str	r3, [r0, #48]	; 0x30
    27f8:	4770      	bx	lr

000027fa <UARTModemControlSet>:
    27fa:	6b03      	ldr	r3, [r0, #48]	; 0x30
    27fc:	f401 6140 	and.w	r1, r1, #3072	; 0xc00
    2800:	430b      	orrs	r3, r1
    2802:	6303      	str	r3, [r0, #48]	; 0x30
    2804:	4770      	bx	lr

00002806 <UARTModemControlClear>:
    2806:	6b03      	ldr	r3, [r0, #48]	; 0x30
    2808:	f401 6140 	and.w	r1, r1, #3072	; 0xc00
    280c:	ea23 0301 	bic.w	r3, r3, r1
    2810:	6303      	str	r3, [r0, #48]	; 0x30
    2812:	4770      	bx	lr

00002814 <UARTModemControlGet>:
    2814:	6b00      	ldr	r0, [r0, #48]	; 0x30
    2816:	f400 6040 	and.w	r0, r0, #3072	; 0xc00
    281a:	4770      	bx	lr

0000281c <UARTModemStatusGet>:
    281c:	6983      	ldr	r3, [r0, #24]
    281e:	f240 1007 	movw	r0, #263	; 0x107
    2822:	ea03 0000 	and.w	r0, r3, r0
    2826:	4770      	bx	lr

00002828 <UARTFlowControlSet>:
    2828:	6b03      	ldr	r3, [r0, #48]	; 0x30
    282a:	f423 4340 	bic.w	r3, r3, #49152	; 0xc000
    282e:	430b      	orrs	r3, r1
    2830:	6303      	str	r3, [r0, #48]	; 0x30
    2832:	4770      	bx	lr

00002834 <UARTFlowControlGet>:
    2834:	6b00      	ldr	r0, [r0, #48]	; 0x30
    2836:	f400 4040 	and.w	r0, r0, #49152	; 0xc000
    283a:	4770      	bx	lr

0000283c <UARTTxIntModeSet>:
    283c:	6b03      	ldr	r3, [r0, #48]	; 0x30
    283e:	f023 0310 	bic.w	r3, r3, #16
    2842:	430b      	orrs	r3, r1
    2844:	6303      	str	r3, [r0, #48]	; 0x30
    2846:	4770      	bx	lr

00002848 <UARTTxIntModeGet>:
    2848:	6b00      	ldr	r0, [r0, #48]	; 0x30
    284a:	f000 0010 	and.w	r0, r0, #16
    284e:	4770      	bx	lr

00002850 <UARTCharsAvail>:
    2850:	6980      	ldr	r0, [r0, #24]
    2852:	f000 0010 	and.w	r0, r0, #16
    2856:	f1d0 0001 	rsbs	r0, r0, #1
    285a:	bf38      	it	cc
    285c:	2000      	movcc	r0, #0
    285e:	4770      	bx	lr

00002860 <UARTSpaceAvail>:
    2860:	6980      	ldr	r0, [r0, #24]
    2862:	f000 0020 	and.w	r0, r0, #32
    2866:	f1d0 0001 	rsbs	r0, r0, #1
    286a:	bf38      	it	cc
    286c:	2000      	movcc	r0, #0
    286e:	4770      	bx	lr

00002870 <UARTCharGetNonBlocking>:
    2870:	6983      	ldr	r3, [r0, #24]
    2872:	f013 0f10 	tst.w	r3, #16
    2876:	bf0c      	ite	eq
    2878:	6800      	ldreq	r0, [r0, #0]
    287a:	f04f 30ff 	movne.w	r0, #4294967295	; 0xffffffff
    287e:	4770      	bx	lr

00002880 <UARTCharGet>:
    2880:	6983      	ldr	r3, [r0, #24]
    2882:	f013 0f10 	tst.w	r3, #16
    2886:	d1fb      	bne.n	2880 <UARTCharGet>
    2888:	6800      	ldr	r0, [r0, #0]
    288a:	4770      	bx	lr

0000288c <UARTCharPutNonBlocking>:
    288c:	6983      	ldr	r3, [r0, #24]
    288e:	f013 0f20 	tst.w	r3, #32
    2892:	d102      	bne.n	289a <UARTCharPutNonBlocking+0xe>
    2894:	6001      	str	r1, [r0, #0]
    2896:	2001      	movs	r0, #1
    2898:	4770      	bx	lr
    289a:	2000      	movs	r0, #0
    289c:	4770      	bx	lr

0000289e <UARTCharPut>:
    289e:	6983      	ldr	r3, [r0, #24]
    28a0:	f013 0f20 	tst.w	r3, #32
    28a4:	d1fb      	bne.n	289e <UARTCharPut>
    28a6:	6001      	str	r1, [r0, #0]
    28a8:	4770      	bx	lr

000028aa <UARTBreakCtl>:
    28aa:	f100 032c 	add.w	r3, r0, #44	; 0x2c
    28ae:	b119      	cbz	r1, 28b8 <UARTBreakCtl+0xe>
    28b0:	6ac2      	ldr	r2, [r0, #44]	; 0x2c
    28b2:	f042 0201 	orr.w	r2, r2, #1
    28b6:	e002      	b.n	28be <UARTBreakCtl+0x14>
    28b8:	6ac2      	ldr	r2, [r0, #44]	; 0x2c
    28ba:	f022 0201 	bic.w	r2, r2, #1
    28be:	601a      	str	r2, [r3, #0]
    28c0:	4770      	bx	lr

000028c2 <UARTBusy>:
    28c2:	6980      	ldr	r0, [r0, #24]
    28c4:	f3c0 00c0 	ubfx	r0, r0, #3, #1
    28c8:	4770      	bx	lr

000028ca <UARTIntRegister>:
    28ca:	b570      	push	{r4, r5, r6, lr}
    28cc:	460d      	mov	r5, r1
    28ce:	f7ff fedd 	bl	268c <_UARTIntNumberGet>
    28d2:	4629      	mov	r1, r5
    28d4:	4604      	mov	r4, r0
    28d6:	f7fe fda5 	bl	1424 <IntRegister>
    28da:	4620      	mov	r0, r4
    28dc:	e8bd 4070 	ldmia.w	sp!, {r4, r5, r6, lr}
    28e0:	f7fe be04 	b.w	14ec <IntEnable>

000028e4 <UARTIntUnregister>:
    28e4:	b510      	push	{r4, lr}
    28e6:	f7ff fed1 	bl	268c <_UARTIntNumberGet>
    28ea:	4604      	mov	r4, r0
    28ec:	f7fe fe2e 	bl	154c <IntDisable>
    28f0:	4620      	mov	r0, r4
    28f2:	e8bd 4010 	ldmia.w	sp!, {r4, lr}
    28f6:	f7fe bdad 	b.w	1454 <IntUnregister>

000028fa <UARTIntEnable>:
    28fa:	6b83      	ldr	r3, [r0, #56]	; 0x38
    28fc:	430b      	orrs	r3, r1
    28fe:	6383      	str	r3, [r0, #56]	; 0x38
    2900:	4770      	bx	lr

00002902 <UARTIntDisable>:
    2902:	6b83      	ldr	r3, [r0, #56]	; 0x38
    2904:	ea23 0301 	bic.w	r3, r3, r1
    2908:	6383      	str	r3, [r0, #56]	; 0x38
    290a:	4770      	bx	lr

0000290c <UARTIntStatus>:
    290c:	b109      	cbz	r1, 2912 <UARTIntStatus+0x6>
    290e:	6c00      	ldr	r0, [r0, #64]	; 0x40
    2910:	4770      	bx	lr
    2912:	6bc0      	ldr	r0, [r0, #60]	; 0x3c
    2914:	4770      	bx	lr

00002916 <UARTIntClear>:
    2916:	6441      	str	r1, [r0, #68]	; 0x44
    2918:	4770      	bx	lr

0000291a <UARTDMAEnable>:
    291a:	6c83      	ldr	r3, [r0, #72]	; 0x48
    291c:	430b      	orrs	r3, r1
    291e:	6483      	str	r3, [r0, #72]	; 0x48
    2920:	4770      	bx	lr

00002922 <UARTDMADisable>:
    2922:	6c83      	ldr	r3, [r0, #72]	; 0x48
    2924:	ea23 0301 	bic.w	r3, r3, r1
    2928:	6483      	str	r3, [r0, #72]	; 0x48
    292a:	4770      	bx	lr

0000292c <UARTRxErrorGet>:
    292c:	6840      	ldr	r0, [r0, #4]
    292e:	f000 000f 	and.w	r0, r0, #15
    2932:	4770      	bx	lr

00002934 <UARTRxErrorClear>:
    2934:	2300      	movs	r3, #0
    2936:	6043      	str	r3, [r0, #4]
    2938:	4770      	bx	lr

0000293a <UARTClockSourceSet>:
    293a:	f8c0 1fc8 	str.w	r1, [r0, #4040]	; 0xfc8
    293e:	4770      	bx	lr

00002940 <UARTClockSourceGet>:
    2940:	f8d0 0fc8 	ldr.w	r0, [r0, #4040]	; 0xfc8
    2944:	4770      	bx	lr

00002946 <UART9BitEnable>:
    2946:	f8d0 30a4 	ldr.w	r3, [r0, #164]	; 0xa4
    294a:	f443 4300 	orr.w	r3, r3, #32768	; 0x8000
    294e:	f8c0 30a4 	str.w	r3, [r0, #164]	; 0xa4
    2952:	4770      	bx	lr

00002954 <UART9BitDisable>:
    2954:	f8d0 30a4 	ldr.w	r3, [r0, #164]	; 0xa4
    2958:	f423 4300 	bic.w	r3, r3, #32768	; 0x8000
    295c:	f8c0 30a4 	str.w	r3, [r0, #164]	; 0xa4
    2960:	4770      	bx	lr

00002962 <UART9BitAddrSet>:
    2962:	f8c0 10a4 	str.w	r1, [r0, #164]	; 0xa4
    2966:	f8c0 20a8 	str.w	r2, [r0, #168]	; 0xa8
    296a:	4770      	bx	lr

0000296c <UART9BitAddrSend>:
    296c:	b510      	push	{r4, lr}
    296e:	6983      	ldr	r3, [r0, #24]
    2970:	f003 0388 	and.w	r3, r3, #136	; 0x88
    2974:	2b80      	cmp	r3, #128	; 0x80
    2976:	f100 0418 	add.w	r4, r0, #24
    297a:	d1f8      	bne.n	296e <UART9BitAddrSend+0x2>
    297c:	6ac3      	ldr	r3, [r0, #44]	; 0x2c
    297e:	f023 0286 	bic.w	r2, r3, #134	; 0x86
    2982:	f042 0282 	orr.w	r2, r2, #130	; 0x82
    2986:	62c2      	str	r2, [r0, #44]	; 0x2c
    2988:	6001      	str	r1, [r0, #0]
    298a:	6822      	ldr	r2, [r4, #0]
    298c:	f002 0288 	and.w	r2, r2, #136	; 0x88
    2990:	2a80      	cmp	r2, #128	; 0x80
    2992:	d1fa      	bne.n	298a <UART9BitAddrSend+0x1e>
    2994:	62c3      	str	r3, [r0, #44]	; 0x2c
    2996:	bd10      	pop	{r4, pc}

00002998 <CPUcpsid>:
    2998:	f3ef 8010 	mrs	r0, PRIMASK
    299c:	b672      	cpsid	i
    299e:	4770      	bx	lr

000029a0 <CPUprimask>:
    29a0:	f3ef 8010 	mrs	r0, PRIMASK
    29a4:	4770      	bx	lr

000029a6 <CPUcpsie>:
    29a6:	f3ef 8010 	mrs	r0, PRIMASK
    29aa:	b662      	cpsie	i
    29ac:	4770      	bx	lr

000029ae <CPUwfi>:
    29ae:	bf30      	wfi
    29b0:	4770      	bx	lr

000029b2 <CPUbasepriSet>:
    29b2:	f380 8811 	msr	BASEPRI, r0
    29b6:	4770      	bx	lr

000029b8 <CPUbasepriGet>:
    29b8:	f3ef 8011 	mrs	r0, BASEPRI
    29bc:	4770      	bx	lr
    29be:	0000      	movs	r0, r0
    29c0:	54534554 	.word	0x54534554
    29c4:	00000000 	.word	0x00000000
    29c8:	3a727265 	.word	0x3a727265
    29cc:	00000020 	.word	0x00000020

000029d0 <g_ppui32GPIOIntMapSnowflake>:
    29d0:	40004000 00000010 40058000 00000010     .@.@.......@....
    29e0:	40005000 00000011 40059000 00000011     .P.@.......@....
    29f0:	40006000 00000012 4005a000 00000012     .`.@.......@....
    2a00:	40007000 00000013 4005b000 00000013     .p.@.......@....
    2a10:	40024000 00000014 4005c000 00000014     .@.@.......@....
    2a20:	40025000 0000002e 4005d000 0000002e     .P.@.......@....
    2a30:	40026000 0000002f 4005e000 0000002f     .`.@/......@/...
    2a40:	40027000 00000030 4005f000 00000030     .p.@0......@0...
    2a50:	4003d000 00000043 40060000 00000043     ...@C......@C...
    2a60:	40061000 00000044 40062000 00000045     ...@D.... .@E...
    2a70:	40063000 00000058 40064000 00000059     .0.@X....@.@Y...
    2a80:	40065000 0000005c 40066000 00000064     .P.@\....`.@d...

00002a90 <g_pui32GPIOBaseAddrs>:
    2a90:	40004000 40058000 40005000 40059000     .@.@...@.P.@...@
    2aa0:	40006000 4005a000 40007000 4005b000     .`.@...@.p.@...@
    2ab0:	40024000 4005c000 40025000 4005d000     .@.@...@.P.@...@
    2ac0:	40026000 4005e000 40027000 4005f000     .`.@...@.p.@...@
    2ad0:	4003d000 40060000 40061000 40061000     ...@...@...@...@
    2ae0:	40062000 40062000 40063000 40063000     . .@. .@.0.@.0.@
    2af0:	40064000 40064000 40065000 40065000     .@.@.@.@.P.@.P.@
    2b00:	40066000 40066000 40067000 40067000     .`.@.`.@.p.@.p.@
    2b10:	40068000 40068000 40069000 40069000     ...@...@...@...@

00002b20 <g_ppui32GPIOIntMapBlizzard>:
    2b20:	40004000 00000010 40058000 00000010     .@.@.......@....
    2b30:	40005000 00000011 40059000 00000011     .P.@.......@....
    2b40:	40006000 00000012 4005a000 00000012     .`.@.......@....
    2b50:	40007000 00000013 4005b000 00000013     .p.@.......@....
    2b60:	40024000 00000014 4005c000 00000014     .@.@.......@....
    2b70:	40025000 0000002e 4005d000 0000002e     .P.@.......@....
    2b80:	40026000 0000002f 4005e000 0000002f     .`.@/......@/...
    2b90:	40027000 00000030 4005f000 00000030     .p.@0......@0...
    2ba0:	4003d000 00000046 40060000 00000046     ...@F......@F...
    2bb0:	40061000 00000047 40062000 00000048     ...@G.... .@H...
    2bc0:	40063000 0000007f 40064000 00000080     .0.@.....@.@....
    2bd0:	40065000 00000084 40066000 0000008c     .P.@.....`.@....

00002be0 <g_pui32Priority>:
    2be0:	00000700 00000600 00000500 00000400     ................
    2bf0:	00000300 00000200 00000100 00000000     ................

00002c00 <g_pui32Dii16Regs>:
    2c00:	e000e180 e000e184 e000e188 e000e18c     ................
    2c10:	e000e190                                ....

00002c14 <g_pui32PendRegs>:
    2c14:	e000e200 e000e204 e000e208 e000e20c     ................
    2c24:	e000e210                                ....

00002c28 <g_pui32Regs>:
    2c28:	00000000 e000ed18 e000ed1c e000ed20     ............ ...
    2c38:	e000e400 e000e404 e000e408 e000e40c     ................
    2c48:	e000e410 e000e414 e000e418 e000e41c     ................
    2c58:	e000e420 e000e424 e000e428 e000e42c      ...$...(...,...
    2c68:	e000e430 e000e434 e000e438 e000e43c     0...4...8...<...
    2c78:	e000e440 e000e444 e000e448 e000e44c     @...D...H...L...
    2c88:	e000e450 e000e454 e000e458 e000e45c     P...T...X...\...
    2c98:	e000e460 e000e464 e000e468 e000e46c     `...d...h...l...
    2ca8:	e000e470 e000e474 e000e478 e000e47c     p...t...x...|...
    2cb8:	e000e480 e000e484 e000e488              ............

00002cc4 <g_pui32EnRegs>:
    2cc4:	e000e100 e000e104 e000e108 e000e10c     ................
    2cd4:	e000e110                                ....

00002cd8 <g_pui32UnpendRegs>:
    2cd8:	e000e280 e000e284 e000e288 e000e28c     ................
    2ce8:	e000e290                                ....

00002cec <g_ppui32SSIIntMap>:
    2cec:	40008000 00000017 40009000 00000032     ...@.......@2...
    2cfc:	4000a000 00000049 4000b000 0000004a     ...@I......@J...

00002d0c <g_ppui32SSIIntMapSnowflake>:
    2d0c:	40008000 00000017 40009000 00000032     ...@.......@2...
    2d1c:	4000a000 00000046 4000b000 00000047     ...@F......@G...

00002d2c <g_pppui32XTALtoVCO>:
    2d2c:	00000040 00000000 0008003e 00000000     @.......>.......
    2d3c:	000000a0 00000002 00015434 00000000     ........4T......
    2d4c:	0006702b 00000000 00000028 00000000     +p......(.......
    2d5c:	00010027 00000000 00000020 00000000     '....... .......
    2d6c:	00000050 00000002 0000ac1a 00000000     P...............
    2d7c:	00099417 00000000 00059816 00000000     ................
    2d8c:	00000014 00000000 00088013 00000000     ................
    2d9c:	000000a0 00000008 00000010 00000000     ................
    2dac:	00000028 00000002 00000040 00000004     (.......@.......
    2dbc:	00000060 00000000 000c005d 00000000     `.......].......
    2dcc:	00000050 00000000 0002004e 00000000     P.......N.......
    2ddc:	0001ac41 00000000 0000003c 00000000     A.......<.......
    2dec:	0009803a 00000000 00000030 00000000     :.......0.......
    2dfc:	00000028 00000000 00010027 00000000     (.......'.......
    2e0c:	00066023 00000000 00086021 00000000     #`......!`......
    2e1c:	0000001e 00000000 0004c01d 00000000     ................
    2e2c:	00000050 00000002 00000018 00000000     P...............
    2e3c:	00000014 00000000 00000060 00000004     ........`.......

00002e4c <g_pui32VCOFrequencies>:
    2e4c:	1312d000 1c9c3800                       .....8..

00002e54 <g_sXTALtoMEMTIM>:
    2e54:	00f42400 00300030 02625a00 00110091     .$..0.0..Zb.....
    2e64:	03938700 00d200d2 04c4b400 01130113     ................
    2e74:	05f5e100 01540154 07270e00 01950195     ....T.T...'.....

00002e84 <g_pui32Xtals>:
    2e84:	000f4240 001c2000 001e8480 00258000     @B... ........%.
    2e94:	00369e99 00384000 003d0900 003e8000     ..6..@8...=...>.
    2ea4:	004b0000 004c4b40 004e2000 005b8d80     ..K.@KL.. N...[.
    2eb4:	005dc000 00708000 007a1200 007d0000     ..]...p...z...}.
    2ec4:	00989680 00b71b00 00bb8000 00cee8c0     ................
    2ed4:	00da7a64 00f42400 00fa0000 0112a880     dz...$..........
    2ee4:	01312d00 016e3600 017d7840              .-1..6n.@x}.

00002ef0 <g_ppui32TimerIntMapSnowflake>:
    2ef0:	40030000 00000023 40031000 00000025     ...@#......@%...
    2f00:	40032000 00000027 40033000 00000033     . .@'....0.@3...
    2f10:	40034000 0000004f 40035000 00000051     .@.@O....P.@Q...
    2f20:	400e0000 00000072 400e1000 00000074     ...@r......@t...

00002f30 <g_ppui32TimerIntMap>:
    2f30:	40030000 00000023 40031000 00000025     ...@#......@%...
    2f40:	40032000 00000027 40033000 00000033     . .@'....0.@3...
    2f50:	40034000 00000056 40035000 0000006c     .@.@V....P.@l...
    2f60:	40036000 0000006e 40037000 00000070     .`.@n....p.@p...
    2f70:	4004c000 00000072 4004d000 00000074     ...@r......@t...
    2f80:	4004e000 00000076 4004f000 00000078     ...@v......@x...

00002f90 <g_ppui32UARTIntMap>:
    2f90:	4000c000 00000015 4000d000 00000016     ...@.......@....
    2fa0:	4000e000 00000031 4000f000 0000004b     ...@1......@K...
    2fb0:	40010000 0000004c 40011000 0000004d     ...@L......@M...
    2fc0:	40012000 0000004e 40013000 0000004f     . .@N....0.@O...

00002fd0 <g_ppui32UARTIntMapSnowflake>:
    2fd0:	4000c000 00000015 4000d000 00000016     ...@.......@....
    2fe0:	4000e000 00000031 4000f000 00000048     ...@1......@H...
    2ff0:	40010000 00000049 40011000 0000004a     ...@I......@J...
    3000:	40012000 0000004b 40013000 0000004c     . .@K....0.@L...
